(lp0
(lp1
S'24'
p2
aS'Nothing'
p3
ag3
ag3
aa(lp4
S'25'
p5
ag3
ag3
ag3
aa(lp6
S'1469'
p7
ag3
ag3
ag3
aa(lp8
S'1477'
p9
aS'2e398c07-367d-42e9-a034-5a818c96efb7'
p10
aS'ea4dccee-71c9-2f0b-bbb3-c6f443f51fb8'
p11
aS'1f8c173f-5fd6-4cf3-a273-9a6350a7e016'
p12
aa(lp13
S'1485'
p14
aS'389baa09-a845-464f-b881-ec58369bfcf6'
p15
aS'b5d91d11-e28e-dca3-aea7-0ef5550396ab'
p16
aS'1f8c173f-5fd6-4cf3-a273-9a6350a7e016'
p17
aa(lp18
S'1494'
p19
ag3
aS'50541f0b-c2e1-2db0-fcce-cdbaa4e7819a'
p20
aS'1f8c173f-5fd6-4cf3-a273-9a6350a7e016'
p21
aa(lp22
S'1495'
p23
ag3
aS'50541f0b-c2e1-2db0-fcce-cdbaa4e7819a'
p24
aS'1f8c173f-5fd6-4cf3-a273-9a6350a7e016'
p25
aa(lp26
S'1496'
p27
ag3
aS'50541f0b-c2e1-2db0-fcce-cdbaa4e7819a'
p28
aS'1f8c173f-5fd6-4cf3-a273-9a6350a7e016'
p29
aa(lp30
S'1497'
p31
aS'df9fd7f4-007f-4b57-8ec1-e6356cb09b5e'
p32
aS'e9492990-8fa9-13c3-1c05-593355b96b32'
p33
aS'1f8c173f-5fd6-4cf3-a273-9a6350a7e016'
p34
aa(lp35
S'1498'
p36
aS'df9fd7f4-007f-4b57-8ec1-e6356cb09b5e'
p37
aS'e9492990-8fa9-13c3-1c05-593355b96b32'
p38
aS'1f8c173f-5fd6-4cf3-a273-9a6350a7e016'
p39
aa(lp40
S'1500'
p41
aS'523d8f37-29c5-4d6c-867b-331bf27249e7'
p42
aS'50541f0b-c2e1-2db0-fcce-cdbaa4e7819a'
p43
aS'1f8c173f-5fd6-4cf3-a273-9a6350a7e016'
p44
aa(lp45
S'1501'
p46
aS'e8a08f49-5f40-4afe-93b5-c39b770e5038'
p47
aS'a5a87ebe-3963-f0b0-68f7-8515a0d1f19e'
p48
aS'1f8c173f-5fd6-4cf3-a273-9a6350a7e016'
p49
aa(lp50
S'1514'
p51
aS'e6e459bd-a3ef-4e82-8163-3d0ca0a7861e'
p52
aS'2379db3f-5009-cef4-4f38-031de46a306b'
p53
aS'1f8c173f-5fd6-4cf3-a273-9a6350a7e016'
p54
aa(lp55
S'1515'
p56
aS'3619a7cf-e3f1-4eab-954b-7b6f943c773a'
p57
aS'0caa8763-8d87-9783-03bc-2dfc9e7a9928'
p58
aS'1f8c173f-5fd6-4cf3-a273-9a6350a7e016'
p59
aa(lp60
S'1522'
p61
aS'baff57d3-45af-4c47-bdec-ba2f44fe47cf'
p62
aS'76f31e09-3530-0277-5f96-95e932118e5a'
p63
aS'1f8c173f-5fd6-4cf3-a273-9a6350a7e016'
p64
aa(lp65
S'1542'
p66
ag3
ag3
ag3
aa(lp67
S'1543'
p68
ag3
ag3
ag3
aa(lp69
S'1548'
p70
aS'0ffa42a6-bc7d-4338-ad59-86fa0813f3df'
p71
aS'7bd9465a-c0c7-294e-3dbd-b9d279f53e4f'
p72
aS'1f8c173f-5fd6-4cf3-a273-9a6350a7e016'
p73
aa(lp74
S'1550'
p75
aS'9e035371-140d-479c-a84e-f73404e22862'
p76
aS'565ba085-d743-5507-494d-908c32c5f457'
p77
aS'1f8c173f-5fd6-4cf3-a273-9a6350a7e016'
p78
aa(lp79
S'1552'
p80
aS'041a36c7-2770-4a40-8c48-8cd16fc5203c'
p81
aS'd7f4034c-93fe-950a-1495-95303c4ccf54'
p82
aS'1f8c173f-5fd6-4cf3-a273-9a6350a7e016'
p83
aa(lp84
S'1553'
p85
aS'4017a7ab-7d94-45ae-9dc7-7721f0b5371a'
p86
aS'27abb8a7-c2df-c5a0-7c8d-d550c41203b6'
p87
aS'1f8c173f-5fd6-4cf3-a273-9a6350a7e016'
p88
aa(lp89
S'1574'
p90
aS'6231d0e5-7bb1-4c34-8dce-0ea9df4ac348'
p91
aS'56456bd6-cb70-adc4-f826-899b2c8e73de'
p92
aS'1f8c173f-5fd6-4cf3-a273-9a6350a7e016'
p93
aa(lp94
S'1586'
p95
aS'0544dad7-3d80-4946-9c13-7ed3170b6b77'
p96
aS'edcb2ded-ac59-da69-0649-1f262a227984'
p97
aS'1f8c173f-5fd6-4cf3-a273-9a6350a7e016'
p98
aa(lp99
S'1590'
p100
aS'2470651d-3a7e-4e92-a8d5-3fbd7ee22a74'
p101
aS'270323cb-f445-147d-4110-bb1f546aa908'
p102
aS'1f8c173f-5fd6-4cf3-a273-9a6350a7e016'
p103
aa(lp104
S'1621'
p105
aS'4dbf1634-878a-4a79-b3ed-643ae31cf81e'
p106
aS'18c824b5-0d0b-0dd3-b1a9-16ec1b6c2d0d'
p107
aS'1f8c173f-5fd6-4cf3-a273-9a6350a7e016'
p108
aa(lp109
S'1622'
p110
aS'b8438d18-3e1b-498c-93b8-d3f25ee5164d'
p111
aS'c7471eea-2df8-1d62-d78b-a895ff1dc194'
p112
aS'1f8c173f-5fd6-4cf3-a273-9a6350a7e016'
p113
aa(lp114
S'1623'
p115
aS'd8b2e400-69f3-47b1-b97f-5236282234dd'
p116
aS'fa33efbc-31a7-d4bf-1d1c-494e91d6394c'
p117
aS'1f8c173f-5fd6-4cf3-a273-9a6350a7e016'
p118
aa(lp119
S'1626'
p120
aS'68db0b27-6ffd-4f78-a857-3bd29ac93dd6'
p121
aS'47e56b8a-53c3-966a-f04d-553cee6557ee'
p122
aS'1f8c173f-5fd6-4cf3-a273-9a6350a7e016'
p123
aa(lp124
S'1636'
p125
aS'68db0b27-6ffd-4f78-a857-3bd29ac93dd6'
p126
aS'47e56b8a-53c3-966a-f04d-553cee6557ee'
p127
aS'1f8c173f-5fd6-4cf3-a273-9a6350a7e016'
p128
aa(lp129
S'1639'
p130
aS'8c199526-d8d8-411b-8f53-83afc6a4c27d'
p131
aS'1dc96151-8b06-9c5b-9fbf-4d8ac7b705cc'
p132
aS'1f8c173f-5fd6-4cf3-a273-9a6350a7e016'
p133
aa(lp134
S'1644'
p135
aS'b659c041-ddd1-4cef-b20d-f4392f8c5a02'
p136
aS'0e2afc1f-e0b4-f80c-fbad-15e11742b66a'
p137
aS'1f8c173f-5fd6-4cf3-a273-9a6350a7e016'
p138
aa(lp139
S'1646'
p140
aS'd69198b8-9a3a-4632-b586-f13409656bbb'
p141
aS'7f608fb1-c773-cf39-7ee3-3000f794e6c7'
p142
aS'1f8c173f-5fd6-4cf3-a273-9a6350a7e016'
p143
aa(lp144
S'1651'
p145
ag3
ag3
ag3
aa(lp146
S'1652'
p147
ag3
ag3
ag3
aa(lp148
S'1654'
p149
ag3
ag3
ag3
aa(lp150
S'1655'
p151
aS'9114efb5-23b4-444d-b0be-f69a1ee8ace5'
p152
aS'968790bf-92d6-eb6f-a222-03ee47a906f0'
p153
aS'1f8c173f-5fd6-4cf3-a273-9a6350a7e016'
p154
aa(lp155
S'1657'
p156
ag3
ag3
ag3
aa(lp157
S'1661'
p158
aS'cd04a33e-d5e7-446f-ac34-0fa24cc201e3'
p159
aS'4bcf2671-eb1e-2453-0a04-09acc05e97b5'
p160
aS'1f8c173f-5fd6-4cf3-a273-9a6350a7e016'
p161
aa(lp162
S'1670'
p163
aS'58087015-f51f-4a31-9794-589c0561bf70'
p164
aS'77a7df35-30a0-20c6-5c3f-378087f27128'
p165
aS'1f8c173f-5fd6-4cf3-a273-9a6350a7e016'
p166
aa(lp167
S'1674'
p168
ag3
ag3
ag3
aa(lp169
S'1675'
p170
ag3
ag3
ag3
aa(lp171
S'1692'
p172
ag3
aS'4baaaed1-6e67-9adc-8283-8f1659a5e564'
p173
aS'1f8c173f-5fd6-4cf3-a273-9a6350a7e016'
p174
aa(lp175
S'1693'
p176
aS'aa0dcf61-1c3c-4c13-8ceb-5a36cac4d226'
p177
aS'7a3a4b7c-ac0a-5ab2-933f-56c6297050b4'
p178
aS'1f8c173f-5fd6-4cf3-a273-9a6350a7e016'
p179
aa(lp180
S'1704'
p181
aS'8d9d97ad-abd6-40a9-974e-84075103b781'
p182
aS'f439307a-0bcc-d2d4-70d7-af1ef2f4d945'
p183
aS'1f8c173f-5fd6-4cf3-a273-9a6350a7e016'
p184
aa(lp185
S'1733'
p186
aS'53a57877-1f78-4ed1-b6b2-4b1259d2fabb'
p187
aS'77f48715-7b47-cc52-332c-304eccdce17b'
p188
aS'1f8c173f-5fd6-4cf3-a273-9a6350a7e016'
p189
aa(lp190
S'1741'
p191
aS'f292f684-e8b6-4a4d-9b20-e0706b0c683b'
p192
aS'f5b27086-118f-e321-c270-400f23d636e9'
p193
aS'1f8c173f-5fd6-4cf3-a273-9a6350a7e016'
p194
aa(lp195
S'1742'
p196
aS'3f0407e0-1fc2-479c-924b-a9e1c6135cea'
p197
aS'515322f2-a322-1ca8-9cee-4dc8bf8e9d1e'
p198
aS'1f8c173f-5fd6-4cf3-a273-9a6350a7e016'
p199
aa(lp200
S'1743'
p201
aS'9edca7ec-d395-4e76-9955-b0ba27b22e33'
p202
aS'a5d80feb-14f1-2fd4-e9c4-3c5e266ca45a'
p203
aS'1f8c173f-5fd6-4cf3-a273-9a6350a7e016'
p204
aa(lp205
S'1744'
p206
aS'fff11501-8c96-412f-a62b-b4b68223141c'
p207
aS'b53fdfe1-c986-8640-81ee-7659e3cc716e'
p208
aS'1f8c173f-5fd6-4cf3-a273-9a6350a7e016'
p209
aa(lp210
S'1749'
p211
ag3
ag3
ag3
aa(lp212
S'1750'
p213
ag3
ag3
ag3
aa(lp214
S'1751'
p215
aS'73488d6f-6326-47fe-82c1-163a948bbc02'
p216
aS'08ff37fb-2b06-250a-e95f-3cdba978248c'
p217
aS'1f8c173f-5fd6-4cf3-a273-9a6350a7e016'
p218
aa(lp219
S'1755'
p220
ag3
ag3
ag3
aa(lp221
S'1756'
p222
aS'0f42c965-e278-453c-ab41-336ddb66181b'
p223
aS'273b510c-140d-b70d-6fa4-71862ef0807a'
p224
aS'1f8c173f-5fd6-4cf3-a273-9a6350a7e016'
p225
aa(lp226
S'1759'
p227
aS'0f42c965-e278-453c-ab41-336ddb66181b'
p228
aS'273b510c-140d-b70d-6fa4-71862ef0807a'
p229
aS'1f8c173f-5fd6-4cf3-a273-9a6350a7e016'
p230
aa(lp231
S'1765'
p232
aS'd9c8e815-0d47-4862-95b2-563321185054'
p233
aS'0b912282-2d04-7b57-7f40-280e051fa04e'
p234
aS'1f8c173f-5fd6-4cf3-a273-9a6350a7e016'
p235
aa(lp236
S'1767'
p237
aS'88140317-9a36-4756-ab5a-7500069e6c0a'
p238
aS'0ba41e2f-4771-ee5d-5d42-76f01ddc6324'
p239
aS'1f8c173f-5fd6-4cf3-a273-9a6350a7e016'
p240
aa(lp241
S'1768'
p242
aS'7cbee0f9-297f-41c0-b4aa-767c79768870'
p243
aS'ccc11534-65d5-a053-ab7e-704f2feb6581'
p244
aS'1f8c173f-5fd6-4cf3-a273-9a6350a7e016'
p245
aa(lp246
S'1769'
p247
aS'b403518f-41fd-481c-b296-d96fc4cdee2e'
p248
aS'83ddbc5f-fd59-f42d-74f6-e2a3e6d4fd35'
p249
aS'1f8c173f-5fd6-4cf3-a273-9a6350a7e016'
p250
aa(lp251
S'1770'
p252
aS'f2aab346-476d-4d1c-aba2-74d1bd486fe3'
p253
aS'cf614264-f001-25de-ce9f-4492b472289c'
p254
aS'1f8c173f-5fd6-4cf3-a273-9a6350a7e016'
p255
aa(lp256
S'1773'
p257
ag3
ag3
ag3
aa(lp258
S'1774'
p259
ag3
ag3
ag3
aa(lp260
S'1778'
p261
aS'6f924c9f-4a5b-4ab2-b35a-ace0fee451a9'
p262
aS'47d57237-f114-61a1-2307-84f2bb043fa2'
p263
aS'1f8c173f-5fd6-4cf3-a273-9a6350a7e016'
p264
aa(lp265
S'1779'
p266
aS'f0da336a-08d9-4d05-a6b7-86a2c533c578'
p267
aS'38de687e-dbc2-7d83-a6b2-c5cfefef489c'
p268
aS'1f8c173f-5fd6-4cf3-a273-9a6350a7e016'
p269
aa(lp270
S'1800'
p271
aS'5c7a16b1-9809-4d47-a509-1072e5e1bb82'
p272
aS'124a70de-355e-93a2-cb8d-201d5e4e3085'
p273
aS'1f8c173f-5fd6-4cf3-a273-9a6350a7e016'
p274
aa(lp275
S'1801'
p276
aS'5c7a16b1-9809-4d47-a509-1072e5e1bb82'
p277
aS'124a70de-355e-93a2-cb8d-201d5e4e3085'
p278
aS'1f8c173f-5fd6-4cf3-a273-9a6350a7e016'
p279
aa(lp280
S'1802'
p281
aS'5720c9cb-e515-4c9c-865c-8f323b3b76d7'
p282
aS'03bd6aa2-bdba-3dd9-489c-5c188fa3acfe'
p283
aS'1f8c173f-5fd6-4cf3-a273-9a6350a7e016'
p284
aa(lp285
S'1803'
p286
aS'83602988-1443-48a9-9996-8d7d477db2ee'
p287
aS'75f63e71-6ee4-debd-ea12-9f07ade9be46'
p288
aS'1f8c173f-5fd6-4cf3-a273-9a6350a7e016'
p289
aa(lp290
S'1806'
p291
aS'3979a592-7e7d-4c1f-86f5-956f9d0d9207'
p292
aS'e88bf16e-694b-e7f4-9e79-92797d06fa16'
p293
aS'1f8c173f-5fd6-4cf3-a273-9a6350a7e016'
p294
aa(lp295
S'1807'
p296
aS'3979a592-7e7d-4c1f-86f5-956f9d0d9207'
p297
aS'e88bf16e-694b-e7f4-9e79-92797d06fa16'
p298
aS'1f8c173f-5fd6-4cf3-a273-9a6350a7e016'
p299
aa(lp300
S'1811'
p301
aS'50599050-2356-4336-ba08-780ed710b17a'
p302
aS'119f1b6f-ba77-e9dc-c5a4-649b52a99fa8'
p303
aS'1f8c173f-5fd6-4cf3-a273-9a6350a7e016'
p304
aa(lp305
S'1812'
p306
aS'50599050-2356-4336-ba08-780ed710b17a'
p307
aS'119f1b6f-ba77-e9dc-c5a4-649b52a99fa8'
p308
aS'1f8c173f-5fd6-4cf3-a273-9a6350a7e016'
p309
aa(lp310
S'1813'
p311
aS'5cc3ed0f-af16-405e-8af4-2288229c972e'
p312
aS'504dcc1e-3532-43d6-2ff7-a1c272cec153'
p313
aS'1f8c173f-5fd6-4cf3-a273-9a6350a7e016'
p314
aa(lp315
S'1818'
p316
aS'5cc3ed0f-af16-405e-8af4-2288229c972e'
p317
aS'504dcc1e-3532-43d6-2ff7-a1c272cec153'
p318
aS'1f8c173f-5fd6-4cf3-a273-9a6350a7e016'
p319
aa(lp320
S'1819'
p321
ag3
ag3
ag3
aa(lp322
S'1822'
p323
ag3
ag3
ag3
aa(lp324
S'1838'
p325
ag3
ag3
ag3
aa(lp326
S'1851'
p327
aS'0086756e-2044-4648-b87c-2c83181adc55'
p328
aS'0c849bdb-23e2-2f9d-eba3-70b61f925277'
p329
aS'1f8c173f-5fd6-4cf3-a273-9a6350a7e016'
p330
aa(lp331
S'1852'
p332
aS'b6e8a78d-a755-49e2-a8bc-83de52266789'
p333
aS'15a6cbb1-27cf-36ce-70f3-22953ed41876'
p334
aS'1f8c173f-5fd6-4cf3-a273-9a6350a7e016'
p335
aa(lp336
S'1853'
p337
aS'f26ac3fd-49e3-4e57-a2fc-c76734f8409f'
p338
aS'315c34b9-cbb9-bc9e-afb9-8d47453f2689'
p339
aS'1f8c173f-5fd6-4cf3-a273-9a6350a7e016'
p340
aa(lp341
S'1858'
p342
aS'f48ebd36-3ea4-4d31-9da1-2927cdfda3c8'
p343
aS'f8466e00-aa0d-4d62-3d1f-ad5e1e083314'
p344
aS'1f8c173f-5fd6-4cf3-a273-9a6350a7e016'
p345
aa(lp346
S'1859'
p347
aS'1c05a84a-e043-47e6-9c0f-64bc669d344e'
p348
aS'f2aa20ae-ca15-0d78-fa38-e889a6dbf289'
p349
aS'1f8c173f-5fd6-4cf3-a273-9a6350a7e016'
p350
aa(lp351
S'1860'
p352
ag3
ag3
ag3
aa(lp353
S'1861'
p354
aS'9cb86ebd-08e1-4b49-b0d6-f74e3935114c'
p355
aS'61fa104c-df34-1f8f-715b-7c60dbaf4cac'
p356
aS'1f8c173f-5fd6-4cf3-a273-9a6350a7e016'
p357
aa(lp358
S'1864'
p359
aS'161076e3-16fb-4db5-a193-170672cd80f6'
p360
aS'94e98027-68b3-b7a5-9c7e-62334c22dae1'
p361
aS'1f8c173f-5fd6-4cf3-a273-9a6350a7e016'
p362
aa(lp363
S'1866'
p364
aS'b6f16381-c01f-4859-a577-3792ad91a03f'
p365
aS'1a6752f5-75ca-af0f-7f98-c88214e1b234'
p366
aS'1f8c173f-5fd6-4cf3-a273-9a6350a7e016'
p367
aa(lp368
S'1868'
p369
aS'b6f16381-c01f-4859-a577-3792ad91a03f'
p370
aS'1a6752f5-75ca-af0f-7f98-c88214e1b234'
p371
aS'1f8c173f-5fd6-4cf3-a273-9a6350a7e016'
p372
aa(lp373
S'1870'
p374
aS'b6f16381-c01f-4859-a577-3792ad91a03f'
p375
aS'1a6752f5-75ca-af0f-7f98-c88214e1b234'
p376
aS'1f8c173f-5fd6-4cf3-a273-9a6350a7e016'
p377
aa(lp378
S'1875'
p379
aS'8b28ea3c-bf94-49ec-8c2e-2333cb87f383'
p380
aS'a189c7b9-76d0-bc65-c808-165e0dcc2687'
p381
aS'1f8c173f-5fd6-4cf3-a273-9a6350a7e016'
p382
aa(lp383
S'1908'
p384
aS'895f7cc8-6f80-44dd-9bd1-805651142282'
p385
aS'019c0389-1487-ac23-55ed-ef4dc7dff175'
p386
aS'1f8c173f-5fd6-4cf3-a273-9a6350a7e016'
p387
aa(lp388
S'1909'
p389
aS'4ebd8d6e-11f6-4a27-9b50-4ddbd9ff5357'
p390
aS'e2130199-5819-332b-3d82-07962fa3adb9'
p391
aS'1f8c173f-5fd6-4cf3-a273-9a6350a7e016'
p392
aa(lp393
S'1913'
p394
aS'c6eea9c6-68c3-4d81-8eb2-22d6039fac10'
p395
aS'0d56873b-8de7-df9c-5771-5b15cc8606bd'
p396
aS'1f8c173f-5fd6-4cf3-a273-9a6350a7e016'
p397
aa(lp398
S'1915'
p399
aS'e1d9d909-da93-434a-a07c-b653b3c1c763'
p400
aS'41e4cefb-3a1e-2b10-ca59-26cb8b68c38a'
p401
aS'1f8c173f-5fd6-4cf3-a273-9a6350a7e016'
p402
aa(lp403
S'1918'
p404
aS'c9b460d2-8c2e-4bd1-812b-d5165303986f'
p405
aS'93b37349-cd13-0dd5-5fa0-f1a8d3d90cb8'
p406
aS'1f8c173f-5fd6-4cf3-a273-9a6350a7e016'
p407
aa(lp408
S'1919'
p409
aS'c9b460d2-8c2e-4bd1-812b-d5165303986f'
p410
aS'93b37349-cd13-0dd5-5fa0-f1a8d3d90cb8'
p411
aS'1f8c173f-5fd6-4cf3-a273-9a6350a7e016'
p412
aa(lp413
S'1920'
p414
ag3
ag3
ag3
aa(lp415
S'1935'
p416
ag3
ag3
ag3
aa(lp417
S'1936'
p418
aS'64e06520-049e-4845-a302-d0dd1daebfb4'
p419
aS'462eec06-eeef-a0ed-b321-6bff2b80d23b'
p420
aS'1f8c173f-5fd6-4cf3-a273-9a6350a7e016'
p421
aa(lp422
S'1957'
p423
aS'961d22d5-f4e8-434c-86c1-415e5d31f571'
p424
aS'517183ba-d53b-ef81-4431-0f34a2cc8e3f'
p425
aS'1f8c173f-5fd6-4cf3-a273-9a6350a7e016'
p426
aa(lp427
S'1958'
p428
aS'961d22d5-f4e8-434c-86c1-415e5d31f571'
p429
aS'517183ba-d53b-ef81-4431-0f34a2cc8e3f'
p430
aS'1f8c173f-5fd6-4cf3-a273-9a6350a7e016'
p431
aa(lp432
S'1959'
p433
aS'b096139b-c0ab-4dc2-8c93-1a3b1292e78a'
p434
aS'1c22376c-8b2b-63e6-a7d7-ff893dded034'
p435
aS'1f8c173f-5fd6-4cf3-a273-9a6350a7e016'
p436
aa(lp437
S'1960'
p438
aS'b445b372-abfc-45e3-b41b-1f38552ba13b'
p439
aS'3e20ac17-a87a-1b1d-cdef-f6529bcc319f'
p440
aS'1f8c173f-5fd6-4cf3-a273-9a6350a7e016'
p441
aa(lp442
S'1961'
p443
aS'892ad776-4896-45ad-a821-958a385100e1'
p444
aS'cb4d6255-978d-b04f-f511-07d4909e1467'
p445
aS'1f8c173f-5fd6-4cf3-a273-9a6350a7e016'
p446
aa(lp447
S'1967'
p448
aS'77ef1132-e228-4e59-92ce-b80b2c0fd039'
p449
aS'c3fa8e03-5dc8-4724-a2ab-104447a75cac'
p450
aS'1f8c173f-5fd6-4cf3-a273-9a6350a7e016'
p451
aa(lp452
S'1975'
p453
aS'6149ed4c-3d8a-4050-a8ed-95db4c72e578'
p454
aS'35a58d8a-3b71-6202-7459-209d619f8c9c'
p455
aS'1f8c173f-5fd6-4cf3-a273-9a6350a7e016'
p456
aa(lp457
S'1976'
p458
ag3
ag3
ag3
aa(lp459
S'1985'
p460
aS'ce03cf9d-8553-463d-9645-b8642932eee3'
p461
aS'fd44c8a4-f6ea-818a-ea9b-b7185e7395f6'
p462
aS'1f8c173f-5fd6-4cf3-a273-9a6350a7e016'
p463
aa(lp464
S'1986'
p465
aS'1d275880-9e80-441e-b0e5-eda424948f6f'
p466
aS'1658d1b7-00a9-cb9e-642d-d951eabbf149'
p467
aS'1f8c173f-5fd6-4cf3-a273-9a6350a7e016'
p468
aa(lp469
S'2029'
p470
aS'e7fb3a5d-8677-4891-a814-8e87c56965a8'
p471
aS'793e6ebf-5446-3d94-1f5b-a0e7bb21bb5e'
p472
aS'1f8c173f-5fd6-4cf3-a273-9a6350a7e016'
p473
aa(lp474
S'2081'
p475
aS'2ed21ba4-56f5-4a11-b78b-2aed78c7bd35'
p476
aS'586f0ba8-2b06-0c0b-38c8-d0d3769137ac'
p477
aS'1f8c173f-5fd6-4cf3-a273-9a6350a7e016'
p478
aa(lp479
S'2082'
p480
aS'c2cc7af2-bb88-44f9-a581-28fa77fedbba'
p481
aS'75d0871b-dc89-60d1-31b9-1b1507a84399'
p482
aS'1f8c173f-5fd6-4cf3-a273-9a6350a7e016'
p483
aa(lp484
S'2083'
p485
ag3
ag3
ag3
aa(lp486
S'2133'
p487
aS'77e92c97-89c0-49db-875d-c283c4d76766'
p488
aS'638a9815-68c3-fdc5-20e5-dd14ffc28347'
p489
aS'1f8c173f-5fd6-4cf3-a273-9a6350a7e016'
p490
aa(lp491
S'2138'
p492
aS'b1149f91-2367-4626-83b9-9492f3ed7162'
p493
aS'c40fff33-ca83-4fb0-216d-32a9ea2ce89f'
p494
aS'1f8c173f-5fd6-4cf3-a273-9a6350a7e016'
p495
aa(lp496
S'2139'
p497
ag3
ag3
ag3
aa(lp498
S'2140'
p499
ag3
ag3
ag3
aa(lp500
S'2141'
p501
ag3
ag3
ag3
aa(lp502
S'2151'
p503
aS'148e5694-4f7e-4924-825f-0fe710c6aed3'
p504
aS'05b6ed61-f001-8650-9e33-deaf1f047642'
p505
aS'1f8c173f-5fd6-4cf3-a273-9a6350a7e016'
p506
aa(lp507
S'2172'
p508
aS'028aa81e-3cf2-484e-b498-e19cbf89bcf6'
p509
aS'9c92dde8-dc7a-8b37-85ee-1d26a0236ecc'
p510
aS'1f8c173f-5fd6-4cf3-a273-9a6350a7e016'
p511
aa(lp512
S'2197'
p513
aS'd26099f9-a3b4-45bd-af8b-e1948206fa44'
p514
aS'8e87e4ea-d460-9c81-38b6-faef7c04ab31'
p515
aS'1f8c173f-5fd6-4cf3-a273-9a6350a7e016'
p516
aa(lp517
S'2199'
p518
aS'3a8fc755-20fa-4d60-9ebd-5ff4fe658649'
p519
aS'97672b22-265a-733f-ca79-5ca32112e4a4'
p520
aS'1f8c173f-5fd6-4cf3-a273-9a6350a7e016'
p521
aa(lp522
S'2207'
p523
aS'fcad8158-dff7-4d37-85ad-060bea0b1261'
p524
aS'283d1bfb-c0a6-73de-d2ba-4fa681f54a6b'
p525
aS'1f8c173f-5fd6-4cf3-a273-9a6350a7e016'
p526
aa(lp527
S'2217'
p528
ag3
ag3
ag3
aa(lp529
S'2218'
p530
ag3
ag3
ag3
aa(lp531
S'2219'
p532
ag3
ag3
ag3
aa(lp533
S'2223'
p534
aS'192bfba3-cb47-4d00-925d-f43153fb9466'
p535
aS'3a3739c8-4952-79de-b740-bf65653a42a9'
p536
aS'1f8c173f-5fd6-4cf3-a273-9a6350a7e016'
p537
aa(lp538
S'2224'
p539
aS'4b8f63d3-a666-49e2-afd2-0e667028c668'
p540
aS'05ff189e-3f90-6bd2-d875-ed6b9025bb3c'
p541
aS'1f8c173f-5fd6-4cf3-a273-9a6350a7e016'
p542
aa(lp543
S'2249'
p544
aS'caddc7d1-5adf-4563-ad98-c1f39bc08763'
p545
aS'b1ca3b1b-19f9-f6d3-5231-79032cd5ea14'
p546
aS'1f8c173f-5fd6-4cf3-a273-9a6350a7e016'
p547
aa(lp548
S'2256'
p549
aS'a03c055d-cf36-4892-ba18-7bf8f14f3fbf'
p550
aS'75608626-86f9-4836-b9e3-f604907fae75'
p551
aS'1f8c173f-5fd6-4cf3-a273-9a6350a7e016'
p552
aa(lp553
S'2258'
p554
aS'e5455574-59de-43da-a55e-df54d7f079eb'
p555
aS'dbfe536d-03ce-9e8e-ea63-2c0bc4bbf98b'
p556
aS'1f8c173f-5fd6-4cf3-a273-9a6350a7e016'
p557
aa(lp558
S'2259'
p559
aS'6aa5c513-e8da-459d-a9d9-c47e0bb2be26'
p560
aS'e068b5f4-5faa-435e-b785-3b8d245b3aeb'
p561
aS'1f8c173f-5fd6-4cf3-a273-9a6350a7e016'
p562
aa(lp563
S'2270'
p564
aS'fd51b34e-deee-40b4-ae13-424d9db2ff3a'
p565
aS'e6194ee0-626f-7ffb-e4b4-f7e52c403a9c'
p566
aS'1f8c173f-5fd6-4cf3-a273-9a6350a7e016'
p567
aa(lp568
S'2271'
p569
aS'684888c7-dd6f-4629-bec9-69440096fd0c'
p570
aS'21a54e6b-68a2-33b7-0b73-f0c80eff0a27'
p571
aS'1f8c173f-5fd6-4cf3-a273-9a6350a7e016'
p572
aa(lp573
S'2283'
p574
aS'2df50cfd-1e53-40c7-9f06-20c0e80a18ef'
p575
aS'86c2230e-3260-c651-0d6c-1d87b6c042b1'
p576
aS'1f8c173f-5fd6-4cf3-a273-9a6350a7e016'
p577
aa(lp578
S'2289'
p579
aS'2e398c07-367d-42e9-a034-5a818c96efb7'
p580
aS'52c53309-2d62-d9fc-41f5-5874acc92056'
p581
aS'1f8c173f-5fd6-4cf3-a273-9a6350a7e016'
p582
aa(lp583
S'2296'
p584
aS'90636c51-beea-41d8-a97e-c035b4566be8'
p585
aS'28c2f8f7-244c-2f9d-ebdf-4952b7b0808c'
p586
aS'1f8c173f-5fd6-4cf3-a273-9a6350a7e016'
p587
aa(lp588
S'2301'
p589
aS'8353848e-96c8-4210-b01b-2cd53968e7a9'
p590
aS'dde972f3-52d9-4bd9-5abd-b24e352d840a'
p591
aS'1f8c173f-5fd6-4cf3-a273-9a6350a7e016'
p592
aa(lp593
S'2312'
p594
ag3
ag3
ag3
aa(lp595
S'2320'
p596
aS'ec220ae2-6418-4f2b-8869-246dc16dd282'
p597
aS'a3e95d7d-04bb-5570-0d9b-f4c53c7967b4'
p598
aS'1f8c173f-5fd6-4cf3-a273-9a6350a7e016'
p599
aa(lp600
S'2334'
p601
aS'4a80751a-3ffb-47f4-817d-d7eb86875f8f'
p602
aS'ae4a8669-9362-df04-0bc7-426d955a0762'
p603
aS'1f8c173f-5fd6-4cf3-a273-9a6350a7e016'
p604
aa(lp605
S'2345'
p606
aS'17e2af8f-e79b-4c5f-885a-cb39f6db548f'
p607
aS'9471b779-a45d-21a4-68fc-e256707e835b'
p608
aS'1f8c173f-5fd6-4cf3-a273-9a6350a7e016'
p609
aa(lp610
S'2347'
p611
ag3
ag3
ag3
aa(lp612
S'2348'
p613
aS'5386bb91-a7a5-4ebd-a003-1f57b171c7bc'
p614
aS'ef582d8a-d49e-2e7e-699e-4c08eadc3f1f'
p615
aS'1f8c173f-5fd6-4cf3-a273-9a6350a7e016'
p616
aa(lp617
S'2349'
p618
aS'5386bb91-a7a5-4ebd-a003-1f57b171c7bc'
p619
aS'ef582d8a-d49e-2e7e-699e-4c08eadc3f1f'
p620
aS'1f8c173f-5fd6-4cf3-a273-9a6350a7e016'
p621
aa(lp622
S'2350'
p623
aS'5386bb91-a7a5-4ebd-a003-1f57b171c7bc'
p624
aS'ef582d8a-d49e-2e7e-699e-4c08eadc3f1f'
p625
aS'1f8c173f-5fd6-4cf3-a273-9a6350a7e016'
p626
aa(lp627
S'2351'
p628
aS'5386bb91-a7a5-4ebd-a003-1f57b171c7bc'
p629
aS'ef582d8a-d49e-2e7e-699e-4c08eadc3f1f'
p630
aS'1f8c173f-5fd6-4cf3-a273-9a6350a7e016'
p631
aa(lp632
S'2352'
p633
aS'71ecaa6f-e4ce-4ee6-b752-6c21719bd2fc'
p634
aS'86da72c9-7083-167b-a7eb-1c1171b2d1d7'
p635
aS'1f8c173f-5fd6-4cf3-a273-9a6350a7e016'
p636
aa(lp637
S'2355'
p638
aS'1fc7734b-af7e-43b6-bc6a-1345c67671ae'
p639
aS'6bbfe999-1c88-b78e-3956-4bd1c91132bd'
p640
aS'1f8c173f-5fd6-4cf3-a273-9a6350a7e016'
p641
aa(lp642
S'2358'
p643
aS'0cc0f5c0-dfc9-4afa-b6c8-07fd4516a2f4'
p644
aS'29b6a4ef-2d8e-ec48-833a-f813b9d152a9'
p645
aS'1f8c173f-5fd6-4cf3-a273-9a6350a7e016'
p646
aa(lp647
S'2359'
p648
aS'668ce9b6-58f8-4ed2-b544-4331cdacab56'
p649
aS'89f394b6-ac77-00b2-ca4c-b9908e2d0922'
p650
aS'1f8c173f-5fd6-4cf3-a273-9a6350a7e016'
p651
aa(lp652
S'2360'
p653
aS'a9f61cad-f7a2-4d2a-88a4-99a144abed04'
p654
aS'7fd98fdd-99c3-1222-e6af-1801ea8ae024'
p655
aS'1f8c173f-5fd6-4cf3-a273-9a6350a7e016'
p656
aa(lp657
S'2361'
p658
aS'a9f61cad-f7a2-4d2a-88a4-99a144abed04'
p659
aS'7fd98fdd-99c3-1222-e6af-1801ea8ae024'
p660
aS'1f8c173f-5fd6-4cf3-a273-9a6350a7e016'
p661
aa(lp662
S'2362'
p663
aS'afe1dd42-b219-4309-afbd-fc80ced3543c'
p664
aS'c55c1660-9cb5-22dc-64a2-7a1c0e401d22'
p665
aS'1f8c173f-5fd6-4cf3-a273-9a6350a7e016'
p666
aa(lp667
S'2367'
p668
ag3
ag3
ag3
aa(lp669
S'2368'
p670
ag3
ag3
ag3
aa(lp671
S'2369'
p672
aS'83c3eccd-9ab1-442f-9df6-e5a00c7064e9'
p673
aS'5119990f-b3ad-c7e1-f0a2-d39882537a95'
p674
aS'1f8c173f-5fd6-4cf3-a273-9a6350a7e016'
p675
aa(lp676
S'2390'
p677
aS'e1e47aaf-48ca-4d3d-9357-a45211149006'
p678
aS'ed2ddb4b-3731-52a4-6600-00232c42b9d4'
p679
aS'1f8c173f-5fd6-4cf3-a273-9a6350a7e016'
p680
aa(lp681
S'2392'
p682
ag3
aS'575389b3-5bad-37a2-2529-6d338ee167e2'
p683
aS'1f8c173f-5fd6-4cf3-a273-9a6350a7e016'
p684
aa(lp685
S'2396'
p686
aS'd136fbe9-c081-4a6a-b9c4-3a8cc877e850'
p687
aS'09f89a93-1bea-6a2c-5bcb-122795c768dc'
p688
aS'1f8c173f-5fd6-4cf3-a273-9a6350a7e016'
p689
aa(lp690
S'2397'
p691
ag3
ag3
ag3
aa(lp692
S'2398'
p693
aS'4d9e72ae-d393-4220-b813-656200920c0b'
p694
aS'4494c342-3bef-7329-8e70-cdbac13be53f'
p695
aS'1f8c173f-5fd6-4cf3-a273-9a6350a7e016'
p696
aa(lp697
S'2399'
p698
aS'4d9e72ae-d393-4220-b813-656200920c0b'
p699
aS'4494c342-3bef-7329-8e70-cdbac13be53f'
p700
aS'1f8c173f-5fd6-4cf3-a273-9a6350a7e016'
p701
aa(lp702
S'2400'
p703
aS'fb728d5b-3c3c-4726-98e6-3a1f7d30eb04'
p704
aS'c2aaabb4-1aa3-fdb7-0f15-8ebc539e7c52'
p705
aS'1f8c173f-5fd6-4cf3-a273-9a6350a7e016'
p706
aa(lp707
S'2401'
p708
aS'6d53fa40-3789-41f5-8210-4ab215bb8bae'
p709
aS'03e00a9b-8bc3-08f6-5bbd-f5939d0a93a1'
p710
aS'1f8c173f-5fd6-4cf3-a273-9a6350a7e016'
p711
aa(lp712
S'2406'
p713
aS'806584fe-4804-45aa-92de-a2d4585dfae2'
p714
aS'a2c47e56-2910-3a50-c500-f5436b92155a'
p715
aS'1f8c173f-5fd6-4cf3-a273-9a6350a7e016'
p716
aa(lp717
S'2408'
p718
aS'cb92a267-5c71-44f5-b406-b6622107f584'
p719
aS'fe29c252-6301-9907-ebb8-84ca9bd2540a'
p720
aS'1f8c173f-5fd6-4cf3-a273-9a6350a7e016'
p721
aa(lp722
S'2409'
p723
aS'cb92a267-5c71-44f5-b406-b6622107f584'
p724
aS'fe29c252-6301-9907-ebb8-84ca9bd2540a'
p725
aS'1f8c173f-5fd6-4cf3-a273-9a6350a7e016'
p726
aa(lp727
S'2410'
p728
aS'e08ad61a-6699-4fd7-aced-f5fd0f39a133'
p729
aS'52a54bb5-2adf-afb3-1157-ea21daf623bd'
p730
aS'1f8c173f-5fd6-4cf3-a273-9a6350a7e016'
p731
aa(lp732
S'2411'
p733
aS'cb92a267-5c71-44f5-b406-b6622107f584'
p734
aS'fe29c252-6301-9907-ebb8-84ca9bd2540a'
p735
aS'1f8c173f-5fd6-4cf3-a273-9a6350a7e016'
p736
aa(lp737
S'2412'
p738
aS'e08ad61a-6699-4fd7-aced-f5fd0f39a133'
p739
aS'52a54bb5-2adf-afb3-1157-ea21daf623bd'
p740
aS'1f8c173f-5fd6-4cf3-a273-9a6350a7e016'
p741
aa(lp742
S'2413'
p743
aS'93ce0828-9331-405d-9da6-15589b26074f'
p744
aS'eba445a9-273e-1fba-b96d-6f9acec3bcef'
p745
aS'1f8c173f-5fd6-4cf3-a273-9a6350a7e016'
p746
aa(lp747
S'2429'
p748
aS'9aa59056-a862-4609-a125-473603082263'
p749
aS'b39b51b1-76e8-03a7-2228-a548ee367163'
p750
aS'1f8c173f-5fd6-4cf3-a273-9a6350a7e016'
p751
aa(lp752
S'2430'
p753
aS'a8a7bbd9-c919-4eb5-93e6-65f13dfcd822'
p754
aS'0ed50cd1-da19-fb11-956b-55485f3b4e7e'
p755
aS'1f8c173f-5fd6-4cf3-a273-9a6350a7e016'
p756
aa(lp757
S'2440'
p758
aS'2b677cbb-9ed7-4992-97fa-958aa99e47be'
p759
aS'25582732-4893-8a67-dd2f-765917462e79'
p760
aS'1f8c173f-5fd6-4cf3-a273-9a6350a7e016'
p761
aa(lp762
S'2445'
p763
aS'01141fcf-0968-4ca1-ac57-1dde4b85eeee'
p764
aS'ba87de9b-e6cb-56d5-ef8e-52395083e41d'
p765
aS'1f8c173f-5fd6-4cf3-a273-9a6350a7e016'
p766
aa(lp767
S'2446'
p768
aS'62bb2f6d-3906-4d5d-91d3-5df2125ac4c1'
p769
aS'7b82e50d-8800-4935-2375-844965f1aa78'
p770
aS'1f8c173f-5fd6-4cf3-a273-9a6350a7e016'
p771
aa(lp772
S'2447'
p773
aS'f0d133d6-2a5d-4419-8ea6-b76216bd28d5'
p774
aS'65859230-2ef4-d48b-777f-eafc64c418f2'
p775
aS'1f8c173f-5fd6-4cf3-a273-9a6350a7e016'
p776
aa(lp777
S'2448'
p778
aS'f0d133d6-2a5d-4419-8ea6-b76216bd28d5'
p779
aS'65859230-2ef4-d48b-777f-eafc64c418f2'
p780
aS'1f8c173f-5fd6-4cf3-a273-9a6350a7e016'
p781
aa(lp782
S'2449'
p783
aS'3c978073-3bab-4f4f-90dc-bc11718fb7e3'
p784
aS'4dc10359-9b5e-9b71-a8fd-f7741de7bf56'
p785
aS'1f8c173f-5fd6-4cf3-a273-9a6350a7e016'
p786
aa(lp787
S'2450'
p788
aS'66745279-1e1d-4990-848b-46d0b7816ba8'
p789
aS'61c092db-a2f7-1a26-7584-81e4c8ce85c3'
p790
aS'1f8c173f-5fd6-4cf3-a273-9a6350a7e016'
p791
aa(lp792
S'2452'
p793
aS'492e9cdb-8065-4cf3-973d-bda909acd137'
p794
aS'f46820b4-33b3-f6de-3e37-ffd19fd1ad07'
p795
aS'1f8c173f-5fd6-4cf3-a273-9a6350a7e016'
p796
aa(lp797
S'2455'
p798
aS'711ad8e3-92f1-470e-adbf-36d8e55f7992'
p799
aS'1df377b5-fa22-fb78-3151-58147c067025'
p800
aS'1f8c173f-5fd6-4cf3-a273-9a6350a7e016'
p801
aa(lp802
S'2466'
p803
aS'06090fd5-d66d-4809-96b4-adf8442ddaec'
p804
aS'94144df8-ce40-c43b-208b-f7b57b98bd13'
p805
aS'1f8c173f-5fd6-4cf3-a273-9a6350a7e016'
p806
aa(lp807
S'2467'
p808
aS'06090fd5-d66d-4809-96b4-adf8442ddaec'
p809
aS'94144df8-ce40-c43b-208b-f7b57b98bd13'
p810
aS'1f8c173f-5fd6-4cf3-a273-9a6350a7e016'
p811
aa(lp812
S'2469'
p813
aS'89f5935c-6102-4b78-a5c1-34979f6152ab'
p814
aS'f0644a5c-c757-dca1-7e7b-8ce89281f665'
p815
aS'1f8c173f-5fd6-4cf3-a273-9a6350a7e016'
p816
aa(lp817
S'2471'
p818
aS'22728c9e-afed-4830-b95c-68e63cea90c7'
p819
aS'ad469576-0f24-ca14-2abe-d9ec39e8bb16'
p820
aS'1f8c173f-5fd6-4cf3-a273-9a6350a7e016'
p821
aa(lp822
S'2472'
p823
aS'833c0f22-3266-43a5-b284-843d0811d3c1'
p824
aS'4a4df841-8c92-53ec-7b18-2c2fd4b747fb'
p825
aS'1f8c173f-5fd6-4cf3-a273-9a6350a7e016'
p826
aa(lp827
S'2473'
p828
aS'7a50323d-c3bd-47d3-84ec-f1d31bb49eb3'
p829
aS'9dd0cfd7-8834-9292-8ab7-27bdeac53137'
p830
aS'1f8c173f-5fd6-4cf3-a273-9a6350a7e016'
p831
aa(lp832
S'2474'
p833
ag3
ag3
ag3
aa(lp834
S'2476'
p835
ag3
ag3
ag3
aa(lp836
S'2477'
p837
ag3
ag3
ag3
aa(lp838
S'2483'
p839
ag3
ag3
ag3
aa(lp840
S'2484'
p841
ag3
ag3
ag3
aa(lp842
S'2485'
p843
ag3
ag3
ag3
aa(lp844
S'2486'
p845
aS'a5a2fa60-4d23-4b1e-b668-edd47162a706'
p846
aS'a70165b4-b154-430c-7774-2fd118ff3349'
p847
aS'1f8c173f-5fd6-4cf3-a273-9a6350a7e016'
p848
aa(lp849
S'2487'
p850
aS'b0b28473-110f-4e85-b901-d5f6f96982ab'
p851
aS'40318a1f-1596-065f-4c1a-981aa8c8ab1f'
p852
aS'1f8c173f-5fd6-4cf3-a273-9a6350a7e016'
p853
aa(lp854
S'2490'
p855
aS'ceea1dd8-ae7c-4f79-be11-0a41a553a98b'
p856
aS'befdeacd-09d1-1b2d-7aff-f1ebaec476db'
p857
aS'1f8c173f-5fd6-4cf3-a273-9a6350a7e016'
p858
aa(lp859
S'2521'
p860
ag3
ag3
ag3
aa(lp861
S'2522'
p862
aS'61d0f680-a5da-4a26-95c2-1bbbdee231de'
p863
aS'422794a0-cc2d-d1e4-c9b0-2f96564f4006'
p864
aS'1f8c173f-5fd6-4cf3-a273-9a6350a7e016'
p865
aa(lp866
S'2524'
p867
ag3
ag3
ag3
aa(lp868
S'2526'
p869
ag3
ag3
ag3
aa(lp870
S'2527'
p871
aS'2972ea5d-2f6b-428c-801b-33c4cabd1bd1'
p872
aS'fd51f81c-1261-a5bf-75b5-74bce382b22b'
p873
aS'1f8c173f-5fd6-4cf3-a273-9a6350a7e016'
p874
aa(lp875
S'2529'
p876
ag3
ag3
ag3
aa(lp877
S'2547'
p878
aS'9c763891-6ee4-4ecf-98d6-b03b43ea0073'
p879
aS'0998d0a3-4844-5995-b6e1-c4d1b0e21bb8'
p880
aS'1f8c173f-5fd6-4cf3-a273-9a6350a7e016'
p881
aa(lp882
S'2559'
p883
aS'9c763891-6ee4-4ecf-98d6-b03b43ea0073'
p884
aS'0998d0a3-4844-5995-b6e1-c4d1b0e21bb8'
p885
aS'1f8c173f-5fd6-4cf3-a273-9a6350a7e016'
p886
aa(lp887
S'2560'
p888
aS'ee16d095-6ac1-4640-9209-f681856f7feb'
p889
aS'19f447d6-e56a-e0ff-3a00-48ecc9841046'
p890
aS'1f8c173f-5fd6-4cf3-a273-9a6350a7e016'
p891
aa(lp892
S'2561'
p893
aS'bd642991-38d1-48a6-b8fb-e583d2151073'
p894
aS'54fd551f-89a8-25ec-9b73-878f61572927'
p895
aS'1f8c173f-5fd6-4cf3-a273-9a6350a7e016'
p896
aa(lp897
S'2562'
p898
aS'36c5fca4-5283-4f82-9897-de96b5d3e908'
p899
aS'fefcc65e-cc64-84ea-9746-b6b04385e89b'
p900
aS'1f8c173f-5fd6-4cf3-a273-9a6350a7e016'
p901
aa(lp902
S'2564'
p903
aS'64e29475-03db-4d8b-80a8-fcb6376d41bc'
p904
aS'50fc2cad-d0a4-ec77-6280-ebe43814c545'
p905
aS'1f8c173f-5fd6-4cf3-a273-9a6350a7e016'
p906
aa(lp907
S'2565'
p908
aS'9a0facef-2b81-45db-a819-dc08785b90db'
p909
aS'5a0ed523-4e27-763a-49e0-8f919c252c29'
p910
aS'1f8c173f-5fd6-4cf3-a273-9a6350a7e016'
p911
aa(lp912
S'2569'
p913
aS'ef3ee824-82f3-4cc0-939d-971f8e637c9a'
p914
aS'a0e9e44e-84c2-f331-27c4-938fc40cac78'
p915
aS'1f8c173f-5fd6-4cf3-a273-9a6350a7e016'
p916
aa(lp917
S'2573'
p918
aS'62bb2f6d-3906-4d5d-91d3-5df2125ac4c1'
p919
aS'a243b773-49b3-51e7-b152-08d5d364f8ff'
p920
aS'1f8c173f-5fd6-4cf3-a273-9a6350a7e016'
p921
aa(lp922
S'2584'
p923
aS'a78b0adc-5245-420c-a3c9-665b4be65bb0'
p924
aS'f12e4f92-4aef-58ea-423f-cdff12f50ab1'
p925
aS'1f8c173f-5fd6-4cf3-a273-9a6350a7e016'
p926
aa(lp927
S'2646'
p928
aS'e5aed274-275b-40a3-972d-bf10e6e14198'
p929
aS'f81ca9c1-bc1e-6810-18ae-3a12ff4eb7bf'
p930
aS'1f8c173f-5fd6-4cf3-a273-9a6350a7e016'
p931
aa(lp932
S'2654'
p933
aS'128a3564-e3da-4bc0-946d-556bdf7ae209'
p934
aS'fdaab29c-9113-958c-6842-376ed6ee26e2'
p935
aS'1f8c173f-5fd6-4cf3-a273-9a6350a7e016'
p936
aa(lp937
S'2666'
p938
aS'4f729d9d-c200-4571-834c-6c5c3993114e'
p939
aS'05dc9ad6-6309-3e25-147f-d8ec26dba6cb'
p940
aS'1f8c173f-5fd6-4cf3-a273-9a6350a7e016'
p941
aa(lp942
S'2671'
p943
aS'f9709aa6-c981-41bf-85c9-3d69c7bac702'
p944
aS'cf92c090-90f8-625b-b84a-4d021dc5c1a7'
p945
aS'1f8c173f-5fd6-4cf3-a273-9a6350a7e016'
p946
aa(lp947
S'2674'
p948
ag3
ag3
ag3
aa(lp949
S'2675'
p950
ag3
ag3
ag3
aa(lp951
S'2681'
p952
aS'9ff786e0-b66d-4760-8c4a-ad4fc1419088'
p953
aS'3caea9c2-e2c9-9504-6efd-996debe70849'
p954
aS'1f8c173f-5fd6-4cf3-a273-9a6350a7e016'
p955
aa(lp956
S'2683'
p957
aS'14c2bc8c-4584-4077-a4a6-b62d18a330ef'
p958
aS'117da026-1973-7a82-6dad-9110bd6ee3f2'
p959
aS'1f8c173f-5fd6-4cf3-a273-9a6350a7e016'
p960
aa(lp961
S'2684'
p962
aS'53e987d6-d8bf-4406-9272-851739708f14'
p963
aS'11d6d286-c305-43ce-1d81-d02981755e69'
p964
aS'1f8c173f-5fd6-4cf3-a273-9a6350a7e016'
p965
aa(lp966
S'2687'
p967
aS'931e988d-e324-4fc6-ad25-f01dece28bbf'
p968
aS'f6e96b7e-81f6-ea89-8b80-bbcda5c6c826'
p969
aS'1f8c173f-5fd6-4cf3-a273-9a6350a7e016'
p970
aa(lp971
S'2708'
p972
aS'56df9c92-adc6-432c-b50d-b7c160497dfa'
p973
aS'077554f3-8be0-8ecb-102a-91c7c3bdeac0'
p974
aS'1f8c173f-5fd6-4cf3-a273-9a6350a7e016'
p975
aa(lp976
S'2711'
p977
ag3
ag3
ag3
aa(lp978
S'2714'
p979
ag3
ag3
ag3
aa(lp980
S'2715'
p981
ag3
ag3
ag3
aa(lp982
S'2716'
p983
ag3
ag3
ag3
aa(lp984
S'2719'
p985
aS'df15ea91-a748-4645-accb-a482d9402f53'
p986
aS'e05fa12f-0ad8-4d85-a1ab-aaddbfd7ff91'
p987
aS'1f8c173f-5fd6-4cf3-a273-9a6350a7e016'
p988
aa(lp989
S'2726'
p990
aS'4744afcd-115a-49aa-beb1-e7933530cfbb'
p991
aS'0fc6d8b7-dbf4-f153-271e-73706f015887'
p992
aS'1f8c173f-5fd6-4cf3-a273-9a6350a7e016'
p993
aa(lp994
S'2727'
p995
aS'712b8ff2-daee-40fe-862c-36bf36076f71'
p996
aS'4eedf6ce-4703-5b74-eaa3-207162b55e8a'
p997
aS'1f8c173f-5fd6-4cf3-a273-9a6350a7e016'
p998
aa(lp999
S'2754'
p1000
aS'25e6170b-4953-4f12-b23d-0092d52044ca'
p1001
aS'c3629534-e08b-9d2d-461f-8b61e257144e'
p1002
aS'1f8c173f-5fd6-4cf3-a273-9a6350a7e016'
p1003
aa(lp1004
S'2756'
p1005
aS'2ece24af-e4ce-4fe6-90da-4a60d3541c21'
p1006
aS'4a3dcc97-03cf-7350-4df6-9af2d93c3103'
p1007
aS'1f8c173f-5fd6-4cf3-a273-9a6350a7e016'
p1008
aa(lp1009
S'2758'
p1010
aS'c9ac8e3e-eeaa-4c49-99da-ac1200197d16'
p1011
aS'd97e42f5-c12d-b13a-bdc2-588bec0ee3b0'
p1012
aS'1f8c173f-5fd6-4cf3-a273-9a6350a7e016'
p1013
aa(lp1014
S'2759'
p1015
aS'c9ac8e3e-eeaa-4c49-99da-ac1200197d16'
p1016
aS'd97e42f5-c12d-b13a-bdc2-588bec0ee3b0'
p1017
aS'1f8c173f-5fd6-4cf3-a273-9a6350a7e016'
p1018
aa(lp1019
S'2760'
p1020
aS'83562d75-0517-4fb7-a562-93ca0973a91e'
p1021
aS'6bac1531-7dd6-08ba-7b46-f4a2bbfbd3f2'
p1022
aS'1f8c173f-5fd6-4cf3-a273-9a6350a7e016'
p1023
aa(lp1024
S'3091'
p1025
aS'574a7966-d11d-4c99-9cbc-be2492434bd7'
p1026
aS'546a4dfe-0ccc-2bab-205b-8df51bbd0099'
p1027
aS'1f8c173f-5fd6-4cf3-a273-9a6350a7e016'
p1028
aa(lp1029
S'3092'
p1030
aS'574a7966-d11d-4c99-9cbc-be2492434bd7'
p1031
aS'546a4dfe-0ccc-2bab-205b-8df51bbd0099'
p1032
aS'1f8c173f-5fd6-4cf3-a273-9a6350a7e016'
p1033
aa(lp1034
S'3097'
p1035
ag3
aS'fffaa7ef-e16c-9407-2608-6cc9c3e5664a'
p1036
aS'1f8c173f-5fd6-4cf3-a273-9a6350a7e016'
p1037
aa(lp1038
S'3099'
p1039
aS'833c0f22-3266-43a5-b284-843d0811d3c1'
p1040
aS'3854630d-101b-02f3-eec1-7ed2aad056da'
p1041
aS'1f8c173f-5fd6-4cf3-a273-9a6350a7e016'
p1042
aa(lp1043
S'3100'
p1044
ag3
ag3
ag3
aa(lp1045
S'3103'
p1046
aS'0d44de73-497f-492d-9fec-026802d725d8'
p1047
aS'81aabf12-f620-a93f-0549-7506c2c0dca0'
p1048
aS'1f8c173f-5fd6-4cf3-a273-9a6350a7e016'
p1049
aa(lp1050
S'3104'
p1051
aS'ad8b1d11-2f34-4173-9901-7d0840ac292b'
p1052
aS'ea15c0a0-60fc-c310-1381-d28304da2e14'
p1053
aS'1f8c173f-5fd6-4cf3-a273-9a6350a7e016'
p1054
aa(lp1055
S'3105'
p1056
aS'28752f06-dce9-4518-a55a-ad5196e8f9e5'
p1057
aS'f9025e30-be91-ee9a-7912-4ef9d93db766'
p1058
aS'1f8c173f-5fd6-4cf3-a273-9a6350a7e016'
p1059
aa(lp1060
S'3106'
p1061
ag3
ag3
ag3
aa(lp1062
S'3107'
p1063
aS'de8a1f31-a9df-4157-bd61-19e7a6057f14'
p1064
aS'7e5899f6-cd2b-ad7c-5b98-73354468cfa5'
p1065
aS'1f8c173f-5fd6-4cf3-a273-9a6350a7e016'
p1066
aa(lp1067
S'3108'
p1068
aS'ff78dfc6-7a64-40f5-b9af-aeb7b5daea3d'
p1069
aS'15987f0f-08ef-40e1-3150-7f397b068cd1'
p1070
aS'1f8c173f-5fd6-4cf3-a273-9a6350a7e016'
p1071
aa(lp1072
S'3111'
p1073
aS'75c5fde3-3f14-4a48-9292-597ee2a60c6e'
p1074
aS'ea9cf07d-163d-9b2b-2ca7-0e5101ffba52'
p1075
aS'1f8c173f-5fd6-4cf3-a273-9a6350a7e016'
p1076
aa(lp1077
S'3119'
p1078
aS'a46eb7ba-f168-4b3c-9ea4-c9327a5da24f'
p1079
aS'5fa47abf-0ea9-59bc-35e0-7f335be408e2'
p1080
aS'1f8c173f-5fd6-4cf3-a273-9a6350a7e016'
p1081
aa(lp1082
S'3120'
p1083
aS'5b363305-f8d1-458c-9c2e-c5e8f823f482'
p1084
aS'01506b1f-615d-b6f8-8196-b469902a45c8'
p1085
aS'1f8c173f-5fd6-4cf3-a273-9a6350a7e016'
p1086
aa(lp1087
S'3128'
p1088
aS'28752f06-dce9-4518-a55a-ad5196e8f9e5'
p1089
aS'f9025e30-be91-ee9a-7912-4ef9d93db766'
p1090
aS'1f8c173f-5fd6-4cf3-a273-9a6350a7e016'
p1091
aa(lp1092
S'3138'
p1093
aS'28752f06-dce9-4518-a55a-ad5196e8f9e5'
p1094
aS'f9025e30-be91-ee9a-7912-4ef9d93db766'
p1095
aS'1f8c173f-5fd6-4cf3-a273-9a6350a7e016'
p1096
aa(lp1097
S'3139'
p1098
aS'28752f06-dce9-4518-a55a-ad5196e8f9e5'
p1099
aS'f9025e30-be91-ee9a-7912-4ef9d93db766'
p1100
aS'1f8c173f-5fd6-4cf3-a273-9a6350a7e016'
p1101
aa(lp1102
S'3144'
p1103
aS'28752f06-dce9-4518-a55a-ad5196e8f9e5'
p1104
aS'f9025e30-be91-ee9a-7912-4ef9d93db766'
p1105
aS'1f8c173f-5fd6-4cf3-a273-9a6350a7e016'
p1106
aa(lp1107
S'3145'
p1108
aS'c9800b69-45f0-4af7-aacf-45f77d95905c'
p1109
aS'eab3898f-aed1-00e7-b15d-7f3d747aadd3'
p1110
aS'1f8c173f-5fd6-4cf3-a273-9a6350a7e016'
p1111
aa(lp1112
S'3151'
p1113
aS'3fb91fb3-bfd4-4ae8-a3c9-dbe13280387d'
p1114
aS'c588fb71-8521-4cc6-33b4-09d90a7b2a36'
p1115
aS'1f8c173f-5fd6-4cf3-a273-9a6350a7e016'
p1116
aa(lp1117
S'3160'
p1118
aS'68025f8e-8607-4dfc-984c-de7574f19b64'
p1119
aS'759c3074-61ee-958a-2cd4-a88ad9e68dfc'
p1120
aS'1f8c173f-5fd6-4cf3-a273-9a6350a7e016'
p1121
aa(lp1122
S'3169'
p1123
ag3
ag3
ag3
aa(lp1124
S'3189'
p1125
aS'ec74cab2-8672-4c03-971f-1259de23a32a'
p1126
aS'd43db91e-4507-a84c-ee1c-c86bea34c062'
p1127
aS'1f8c173f-5fd6-4cf3-a273-9a6350a7e016'
p1128
aa(lp1129
S'3197'
p1130
aS'26042b9b-31e1-4b50-b1a9-755f943f18aa'
p1131
aS'c997228c-5d24-8741-3e33-7f3740a59b70'
p1132
aS'1f8c173f-5fd6-4cf3-a273-9a6350a7e016'
p1133
aa(lp1134
S'3200'
p1135
aS'bbe2a617-20df-4d91-b0ea-f674ac2faafb'
p1136
aS'b382f7d9-e9ac-465e-2e06-45eae91fb27c'
p1137
aS'1f8c173f-5fd6-4cf3-a273-9a6350a7e016'
p1138
aa(lp1139
S'3201'
p1140
aS'68025f8e-8607-4dfc-984c-de7574f19b64'
p1141
aS'759c3074-61ee-958a-2cd4-a88ad9e68dfc'
p1142
aS'1f8c173f-5fd6-4cf3-a273-9a6350a7e016'
p1143
aa(lp1144
S'3202'
p1145
aS'22863bfe-c881-4594-810e-f9e4b3cb5b75'
p1146
aS'f3c44098-1847-5856-188e-93a8ae2a6284'
p1147
aS'1f8c173f-5fd6-4cf3-a273-9a6350a7e016'
p1148
aa(lp1149
S'3203'
p1150
aS'22863bfe-c881-4594-810e-f9e4b3cb5b75'
p1151
aS'f3c44098-1847-5856-188e-93a8ae2a6284'
p1152
aS'1f8c173f-5fd6-4cf3-a273-9a6350a7e016'
p1153
aa(lp1154
S'3204'
p1155
aS'19fc84a9-54f5-4fcf-8ac9-19d89a6f75cb'
p1156
aS'd180014d-6f97-b5af-827d-cc2a166df5e1'
p1157
aS'1f8c173f-5fd6-4cf3-a273-9a6350a7e016'
p1158
aa(lp1159
S'3207'
p1160
aS'627e5c37-eaaa-4a95-9364-fb872fc1ecad'
p1161
aS'30403575-47cf-50d1-ff0a-f9195b88974c'
p1162
aS'1f8c173f-5fd6-4cf3-a273-9a6350a7e016'
p1163
aa(lp1164
S'3208'
p1165
aS'627e5c37-eaaa-4a95-9364-fb872fc1ecad'
p1166
aS'30403575-47cf-50d1-ff0a-f9195b88974c'
p1167
aS'1f8c173f-5fd6-4cf3-a273-9a6350a7e016'
p1168
aa(lp1169
S'3213'
p1170
aS'627e5c37-eaaa-4a95-9364-fb872fc1ecad'
p1171
aS'30403575-47cf-50d1-ff0a-f9195b88974c'
p1172
aS'1f8c173f-5fd6-4cf3-a273-9a6350a7e016'
p1173
aa(lp1174
S'3214'
p1175
aS'43c3f5d0-467a-4115-af41-d0fbe3c2af9c'
p1176
aS'a51110f0-4f8f-8acf-da8f-b1b64f55deed'
p1177
aS'1f8c173f-5fd6-4cf3-a273-9a6350a7e016'
p1178
aa(lp1179
S'3216'
p1180
aS'251c8a6d-39b6-4ba8-bfb3-5c7465f9ec86'
p1181
aS'70d4c7ed-8fda-1131-ee3f-3189e7967877'
p1182
aS'1f8c173f-5fd6-4cf3-a273-9a6350a7e016'
p1183
aa(lp1184
S'3217'
p1185
ag3
ag3
ag3
aa(lp1186
S'3218'
p1187
ag3
ag3
ag3
aa(lp1188
S'3221'
p1189
ag3
ag3
ag3
aa(lp1190
S'3225'
p1191
ag3
ag3
ag3
aa(lp1192
S'3226'
p1193
ag3
ag3
ag3
aa(lp1194
S'3231'
p1195
aS'b61f9290-00ad-498e-bf77-bb92828bd9f5'
p1196
aS'85e50e5f-cca6-02c6-a155-94607386cd7a'
p1197
aS'1f8c173f-5fd6-4cf3-a273-9a6350a7e016'
p1198
aa(lp1199
S'3232'
p1200
aS'099f5fcd-2533-4f4a-b89b-9f3f6be86c2a'
p1201
aS'b1777da8-5000-0f5a-3ccf-3057f42a3005'
p1202
aS'1f8c173f-5fd6-4cf3-a273-9a6350a7e016'
p1203
aa(lp1204
S'3239'
p1205
aS'8ef8c160-85cb-4809-9014-5f5820c171c9'
p1206
aS'b7e9c0a1-8a30-1a58-bcdd-65e867ef29b1'
p1207
aS'1f8c173f-5fd6-4cf3-a273-9a6350a7e016'
p1208
aa(lp1209
S'3240'
p1210
aS'8ef8c160-85cb-4809-9014-5f5820c171c9'
p1211
aS'b7e9c0a1-8a30-1a58-bcdd-65e867ef29b1'
p1212
aS'1f8c173f-5fd6-4cf3-a273-9a6350a7e016'
p1213
aa(lp1214
S'3241'
p1215
aS'8ef8c160-85cb-4809-9014-5f5820c171c9'
p1216
aS'b7e9c0a1-8a30-1a58-bcdd-65e867ef29b1'
p1217
aS'1f8c173f-5fd6-4cf3-a273-9a6350a7e016'
p1218
aa(lp1219
S'3242'
p1220
aS'8ef8c160-85cb-4809-9014-5f5820c171c9'
p1221
aS'b7e9c0a1-8a30-1a58-bcdd-65e867ef29b1'
p1222
aS'1f8c173f-5fd6-4cf3-a273-9a6350a7e016'
p1223
aa(lp1224
S'3243'
p1225
aS'1f2afe08-b163-414e-a9ee-9302737ae1e1'
p1226
aS'31f588f4-8841-5052-eeeb-aa7561931577'
p1227
aS'1f8c173f-5fd6-4cf3-a273-9a6350a7e016'
p1228
aa(lp1229
S'3252'
p1230
ag3
ag3
ag3
aa(lp1231
S'3258'
p1232
ag3
ag3
ag3
aa(lp1233
S'3259'
p1234
ag3
ag3
ag3
aa(lp1235
S'3260'
p1236
ag3
ag3
ag3
aa(lp1237
S'3295'
p1238
ag3
ag3
ag3
aa(lp1239
S'3304'
p1240
aS'97c0dacc-003f-473a-9883-f4ff0f078a7e'
p1241
aS'1235b8a1-544e-dc24-ba52-07d09d6bc54b'
p1242
aS'1f8c173f-5fd6-4cf3-a273-9a6350a7e016'
p1243
aa(lp1244
S'3305'
p1245
aS'8e860bec-491d-43e7-b824-63d5433621ea'
p1246
aS'f972d413-3881-348b-dce3-66be808871bd'
p1247
aS'1f8c173f-5fd6-4cf3-a273-9a6350a7e016'
p1248
aa(lp1249
S'3306'
p1250
aS'fe2bf059-5970-4207-8369-95e8e5f9d760'
p1251
aS'dc6bd5f8-bf0e-b571-671f-2211c325ed64'
p1252
aS'1f8c173f-5fd6-4cf3-a273-9a6350a7e016'
p1253
aa(lp1254
S'3308'
p1255
ag3
ag3
ag3
aa(lp1256
S'3330'
p1257
ag3
ag3
ag3
aa(lp1258
S'3346'
p1259
aS'2629b28d-b176-48a4-8f0a-52bc273b6791'
p1260
aS'99580d55-a746-07de-2d02-eb832bbed437'
p1261
aS'1f8c173f-5fd6-4cf3-a273-9a6350a7e016'
p1262
aa(lp1263
S'3348'
p1264
aS'55f77e4a-4f07-409e-ad23-87a1c8f1451f'
p1265
aS'59400358-dd41-8ece-6cfe-05766d304d05'
p1266
aS'1f8c173f-5fd6-4cf3-a273-9a6350a7e016'
p1267
aa(lp1268
S'3349'
p1269
ag3
ag3
ag3
aa(lp1270
S'3354'
p1271
aS'ce4e38d1-66e4-486b-a9ed-1be4abfe386a'
p1272
aS'a0b779a4-8621-0caa-9ae8-ecd5290f356e'
p1273
aS'1f8c173f-5fd6-4cf3-a273-9a6350a7e016'
p1274
aa(lp1275
S'3357'
p1276
aS'18cd887b-beaf-493b-ba1a-c50f4ddc42c4'
p1277
aS'de54b5b9-164b-bb46-3c49-33951a1f43d0'
p1278
aS'1f8c173f-5fd6-4cf3-a273-9a6350a7e016'
p1279
aa(lp1280
S'3361'
p1281
aS'17ed8c90-1e58-4794-bb8c-25b88a445acc'
p1282
aS'4ab863cb-4869-fb5c-0194-737fcffbbf19'
p1283
aS'1f8c173f-5fd6-4cf3-a273-9a6350a7e016'
p1284
aa(lp1285
S'3372'
p1286
aS'44de6455-1f17-45f1-beb5-4188da2b3a8b'
p1287
aS'099668b6-e874-f374-4ef3-e9c4ff268a75'
p1288
aS'1f8c173f-5fd6-4cf3-a273-9a6350a7e016'
p1289
aa(lp1290
S'3397'
p1291
aS'f0c7cbaa-01e1-4318-8f1b-1479567c7bf4'
p1292
aS'5e12246d-75c6-c2c2-4401-e24655128406'
p1293
aS'1f8c173f-5fd6-4cf3-a273-9a6350a7e016'
p1294
aa(lp1295
S'3400'
p1296
aS'a8a7bbd9-c919-4eb5-93e6-65f13dfcd822'
p1297
aS'c04fc75b-60ce-04f3-ee47-ade9eafa62a4'
p1298
aS'1f8c173f-5fd6-4cf3-a273-9a6350a7e016'
p1299
aa(lp1300
S'3401'
p1301
aS'a8a7bbd9-c919-4eb5-93e6-65f13dfcd822'
p1302
aS'e5ebf5a2-6124-a254-0b40-f8d2347ab266'
p1303
aS'1f8c173f-5fd6-4cf3-a273-9a6350a7e016'
p1304
aa(lp1305
S'3406'
p1306
aS'7aeea212-4d5a-41e6-9bfd-0b8815039094'
p1307
aS'7bb07ae9-bf59-406f-28a4-a00588f828cc'
p1308
aS'1f8c173f-5fd6-4cf3-a273-9a6350a7e016'
p1309
aa(lp1310
S'3408'
p1311
aS'8f57b369-23b3-4acb-ad14-8b5cb1ad1bec'
p1312
aS'c869a635-fd34-7816-2fda-14911a7a66d0'
p1313
aS'1f8c173f-5fd6-4cf3-a273-9a6350a7e016'
p1314
aa(lp1315
S'3409'
p1316
aS'8f57b369-23b3-4acb-ad14-8b5cb1ad1bec'
p1317
aS'c869a635-fd34-7816-2fda-14911a7a66d0'
p1318
aS'1f8c173f-5fd6-4cf3-a273-9a6350a7e016'
p1319
aa(lp1320
S'3410'
p1321
aS'8f57b369-23b3-4acb-ad14-8b5cb1ad1bec'
p1322
aS'c869a635-fd34-7816-2fda-14911a7a66d0'
p1323
aS'1f8c173f-5fd6-4cf3-a273-9a6350a7e016'
p1324
aa(lp1325
S'3411'
p1326
aS'8f57b369-23b3-4acb-ad14-8b5cb1ad1bec'
p1327
aS'c869a635-fd34-7816-2fda-14911a7a66d0'
p1328
aS'1f8c173f-5fd6-4cf3-a273-9a6350a7e016'
p1329
aa(lp1330
S'3412'
p1331
aS'040bacec-96f4-432a-a089-aca9f522918d'
p1332
aS'66eeac10-7dd9-9f79-e072-f84ec7024be7'
p1333
aS'1f8c173f-5fd6-4cf3-a273-9a6350a7e016'
p1334
aa(lp1335
S'3413'
p1336
aS'c2be9150-abc8-499c-8006-ad78b1cbcb62'
p1337
aS'd9a8f500-189b-b0f4-932c-32197fb00bdd'
p1338
aS'1f8c173f-5fd6-4cf3-a273-9a6350a7e016'
p1339
aa(lp1340
S'3419'
p1341
aS'd8eb4c99-596c-4de6-b4b6-b5b2189273b3'
p1342
aS'493e5309-4800-4742-61df-2c3dcd0cf2e3'
p1343
aS'1f8c173f-5fd6-4cf3-a273-9a6350a7e016'
p1344
aa(lp1345
S'3427'
p1346
aS'd8eb4c99-596c-4de6-b4b6-b5b2189273b3'
p1347
aS'493e5309-4800-4742-61df-2c3dcd0cf2e3'
p1348
aS'1f8c173f-5fd6-4cf3-a273-9a6350a7e016'
p1349
aa(lp1350
S'3435'
p1351
aS'd8eb4c99-596c-4de6-b4b6-b5b2189273b3'
p1352
aS'493e5309-4800-4742-61df-2c3dcd0cf2e3'
p1353
aS'1f8c173f-5fd6-4cf3-a273-9a6350a7e016'
p1354
aa(lp1355
S'3436'
p1356
aS'd4dec2b4-bbb6-4b81-974d-bab15d9468a2'
p1357
aS'982cce3e-5dae-c0b5-9f7e-b7604193fcbd'
p1358
aS'1f8c173f-5fd6-4cf3-a273-9a6350a7e016'
p1359
aa(lp1360
S'3437'
p1361
aS'29bcdaf0-7a68-42fe-86e1-c56a815b7579'
p1362
aS'22f6e89e-3bb0-afa0-4b1f-a2c88f38ba9f'
p1363
aS'1f8c173f-5fd6-4cf3-a273-9a6350a7e016'
p1364
aa(lp1365
S'3438'
p1366
aS'dbcb79ba-4447-4ed8-aeb1-6417d8ee69a4'
p1367
aS'9cb3f068-93df-7d40-63e5-7f2db1cf1539'
p1368
aS'1f8c173f-5fd6-4cf3-a273-9a6350a7e016'
p1369
aa(lp1370
S'3442'
p1371
ag3
ag3
ag3
aa(lp1372
S'3453'
p1373
aS'1fb1be2e-3903-411e-a223-e33ec565841c'
p1374
aS'dfc62ec2-7c85-cc97-6fb6-7fa388ef4064'
p1375
aS'1f8c173f-5fd6-4cf3-a273-9a6350a7e016'
p1376
aa(lp1377
S'3454'
p1378
aS'c1226398-ffcf-49eb-b76c-c7c621fd12e9'
p1379
aS'ba3ed8c2-70a1-abe5-20dc-bc069103e312'
p1380
aS'1f8c173f-5fd6-4cf3-a273-9a6350a7e016'
p1381
aa(lp1382
S'3455'
p1383
aS'8dcdf1b3-0529-4a20-9e7e-b728992240ba'
p1384
aS'f7fed613-e8df-bafc-8523-0399f5af8595'
p1385
aS'1f8c173f-5fd6-4cf3-a273-9a6350a7e016'
p1386
aa(lp1387
S'3456'
p1388
aS'12b58f68-1930-4fea-8dda-95cb89093ade'
p1389
aS'aef9a186-7241-c7c4-90a9-d600386f5d05'
p1390
aS'1f8c173f-5fd6-4cf3-a273-9a6350a7e016'
p1391
aa(lp1392
S'3467'
p1393
ag3
aS'ad6bcd29-97a4-e5ff-1b21-32479e6d6711'
p1394
aS'1f8c173f-5fd6-4cf3-a273-9a6350a7e016'
p1395
aa(lp1396
S'3468'
p1397
aS'8dcdf1b3-0529-4a20-9e7e-b728992240ba'
p1398
aS'f7fed613-e8df-bafc-8523-0399f5af8595'
p1399
aS'1f8c173f-5fd6-4cf3-a273-9a6350a7e016'
p1400
aa(lp1401
S'3471'
p1402
aS'9a52e0bb-ea64-476b-bcd7-e1d0092d6966'
p1403
aS'c97aca06-fc01-becb-16cd-a20aedde149f'
p1404
aS'1f8c173f-5fd6-4cf3-a273-9a6350a7e016'
p1405
aa(lp1406
S'3478'
p1407
aS'dabcdc09-48b9-470d-b495-920d21571f58'
p1408
aS'b2731ae4-8c4f-d625-513c-7f76b8aef77d'
p1409
aS'1f8c173f-5fd6-4cf3-a273-9a6350a7e016'
p1410
aa(lp1411
S'3479'
p1412
aS'5d52af6e-750b-417d-928d-a6f51379e448'
p1413
aS'a51cade9-6e07-804e-19f4-ab66c2e2ae0e'
p1414
aS'1f8c173f-5fd6-4cf3-a273-9a6350a7e016'
p1415
aa(lp1416
S'3480'
p1417
aS'a88bc165-58d5-498c-ad3f-841c5261f66b'
p1418
aS'77afd1b3-33d2-56c2-a5d4-6360477608d2'
p1419
aS'1f8c173f-5fd6-4cf3-a273-9a6350a7e016'
p1420
aa(lp1421
S'3481'
p1422
aS'fde6a5ee-550a-40e7-877a-80330b2d77ee'
p1423
aS'98827573-3231-f8c3-d44b-cf17c7c65571'
p1424
aS'1f8c173f-5fd6-4cf3-a273-9a6350a7e016'
p1425
aa(lp1426
S'3482'
p1427
aS'64a46a18-b471-4e00-bb0a-f9caf787d382'
p1428
aS'89574707-9d41-306f-1962-f1a95de5322a'
p1429
aS'1f8c173f-5fd6-4cf3-a273-9a6350a7e016'
p1430
aa(lp1431
S'3491'
p1432
aS'3af64ba2-756a-46ba-969b-aa303a5bd3e7'
p1433
aS'a74645f8-9114-e8ac-8062-4b725a2e076d'
p1434
aS'1f8c173f-5fd6-4cf3-a273-9a6350a7e016'
p1435
aa(lp1436
S'3511'
p1437
aS'ebad8faa-9299-41b4-91c8-34c624f23309'
p1438
aS'c7d253e5-a9a5-9400-13b2-877f0e33cf5a'
p1439
aS'1f8c173f-5fd6-4cf3-a273-9a6350a7e016'
p1440
aa(lp1441
S'3512'
p1442
aS'a6362f07-ea27-41b2-91c6-7329ea8f1e44'
p1443
aS'c176dd33-d70c-70b3-62ba-5ddd07569739'
p1444
aS'1f8c173f-5fd6-4cf3-a273-9a6350a7e016'
p1445
aa(lp1446
S'3513'
p1447
aS'04281282-d23f-4ef6-8a2d-bbd350ce0403'
p1448
aS'0293f892-1555-1c15-60a6-13edb2baf987'
p1449
aS'1f8c173f-5fd6-4cf3-a273-9a6350a7e016'
p1450
aa(lp1451
S'3520'
p1452
aS'04281282-d23f-4ef6-8a2d-bbd350ce0403'
p1453
aS'0293f892-1555-1c15-60a6-13edb2baf987'
p1454
aS'1f8c173f-5fd6-4cf3-a273-9a6350a7e016'
p1455
aa(lp1456
S'3524'
p1457
aS'681fb860-fa6c-4bf2-9d61-24e004e2a290'
p1458
aS'37c1b7f6-f359-4746-24fc-1391ab56b14f'
p1459
aS'1f8c173f-5fd6-4cf3-a273-9a6350a7e016'
p1460
aa(lp1461
S'3525'
p1462
aS'2f873643-d96f-4361-9fc2-9514f19a5e76'
p1463
aS'99343fce-61ea-ecf8-e8f3-c157c017267f'
p1464
aS'1f8c173f-5fd6-4cf3-a273-9a6350a7e016'
p1465
aa(lp1466
S'3526'
p1467
aS'fe86ec25-60ea-447b-932d-f805cdb12847'
p1468
aS'395bdefb-c54d-ba5d-2f71-6e7a0acdfc67'
p1469
aS'1f8c173f-5fd6-4cf3-a273-9a6350a7e016'
p1470
aa(lp1471
S'3527'
p1472
aS'4a68a7c0-b36d-495e-a24a-43dcedfe009e'
p1473
aS'eefc285c-d48c-0430-2f96-e6e37df24a80'
p1474
aS'1f8c173f-5fd6-4cf3-a273-9a6350a7e016'
p1475
aa(lp1476
S'3528'
p1477
aS'4a68a7c0-b36d-495e-a24a-43dcedfe009e'
p1478
aS'eefc285c-d48c-0430-2f96-e6e37df24a80'
p1479
aS'1f8c173f-5fd6-4cf3-a273-9a6350a7e016'
p1480
aa(lp1481
S'3529'
p1482
aS'73652525-a1bd-4ad2-8a77-b2eddb302344'
p1483
aS'b8037d9e-cd9b-cb6f-5482-3c1413e048c4'
p1484
aS'1f8c173f-5fd6-4cf3-a273-9a6350a7e016'
p1485
aa(lp1486
S'3530'
p1487
ag3
ag3
ag3
aa(lp1488
S'3531'
p1489
aS'e0bb8142-b345-486f-ac1a-272fbbd58a0a'
p1490
aS'6786620a-1080-fbce-30cc-51b78f96729e'
p1491
aS'1f8c173f-5fd6-4cf3-a273-9a6350a7e016'
p1492
aa(lp1493
S'3545'
p1494
aS'ae8e83b2-0b94-4e38-85e4-58979323d774'
p1495
aS'a84a5f90-a96c-31d0-4225-804fc029bc2d'
p1496
aS'1f8c173f-5fd6-4cf3-a273-9a6350a7e016'
p1497
aa(lp1498
S'3547'
p1499
ag3
aS'cda7f105-e7dc-c0f5-6ccc-fed10c643806'
p1500
aS'1f8c173f-5fd6-4cf3-a273-9a6350a7e016'
p1501
aa(lp1502
S'3548'
p1503
ag3
ag3
ag3
aa(lp1504
S'3549'
p1505
ag3
ag3
ag3
aa(lp1506
S'3571'
p1507
aS'8a56b205-7fda-4467-9016-dec7d35ef418'
p1508
aS'3be0485c-30cb-de1a-e72b-854d9da3f455'
p1509
aS'1f8c173f-5fd6-4cf3-a273-9a6350a7e016'
p1510
aa(lp1511
S'3576'
p1512
aS'1d4f7e54-686b-4f94-8a0b-5be80430a910'
p1513
aS'9521e565-3a8c-44d3-0b92-05b52dc4089c'
p1514
aS'1f8c173f-5fd6-4cf3-a273-9a6350a7e016'
p1515
aa(lp1516
S'3581'
p1517
aS'837ddb16-9571-448e-915d-621a916b9944'
p1518
aS'b90fc714-4f97-74d0-c772-0ed6e6446b7e'
p1519
aS'1f8c173f-5fd6-4cf3-a273-9a6350a7e016'
p1520
aa(lp1521
S'3633'
p1522
aS'4910b00d-6fa6-4158-a79c-856ee158f6ae'
p1523
aS'ce6c7f4a-49cb-bc11-dc99-f4d7d89fd354'
p1524
aS'1f8c173f-5fd6-4cf3-a273-9a6350a7e016'
p1525
aa(lp1526
S'3634'
p1527
aS'449f118a-2f5b-49fa-a722-17d54498ee38'
p1528
aS'a9ecfc09-cf8b-de2f-065a-b84095d5ac4c'
p1529
aS'1f8c173f-5fd6-4cf3-a273-9a6350a7e016'
p1530
aa(lp1531
S'3635'
p1532
aS'449f118a-2f5b-49fa-a722-17d54498ee38'
p1533
aS'a9ecfc09-cf8b-de2f-065a-b84095d5ac4c'
p1534
aS'1f8c173f-5fd6-4cf3-a273-9a6350a7e016'
p1535
aa(lp1536
S'3642'
p1537
aS'80d9356c-165d-4974-adab-762e66555358'
p1538
aS'6fa21304-4b9c-cdb7-ea4c-4d368f5083c5'
p1539
aS'1f8c173f-5fd6-4cf3-a273-9a6350a7e016'
p1540
aa(lp1541
S'3669'
p1542
aS'0c196a3e-6f14-4ed3-848f-79d800510589'
p1543
aS'c8cc27a3-d2bb-943e-037a-60abb74452a5'
p1544
aS'1f8c173f-5fd6-4cf3-a273-9a6350a7e016'
p1545
aa(lp1546
S'3670'
p1547
aS'71997fb3-d2cc-4e0d-828c-167b8834064f'
p1548
aS'6bb5793b-0520-7f56-7c5a-5854c09b4096'
p1549
aS'1f8c173f-5fd6-4cf3-a273-9a6350a7e016'
p1550
aa(lp1551
S'3676'
p1552
aS'c0d652c7-efd2-40a6-8199-8885b3e79cec'
p1553
aS'e5695d6a-a772-e5f4-d115-6e902e4188c7'
p1554
aS'1f8c173f-5fd6-4cf3-a273-9a6350a7e016'
p1555
aa(lp1556
S'3689'
p1557
aS'ae60f138-75d4-4198-aef9-b7cbbd6c7b92'
p1558
aS'c38beeb7-9621-19c6-d74d-cdf0814fccc0'
p1559
aS'1f8c173f-5fd6-4cf3-a273-9a6350a7e016'
p1560
aa(lp1561
S'3690'
p1562
aS'3e9dfe85-271a-4066-b85e-5b4630adc8db'
p1563
aS'e02f02a0-4352-2db4-459f-1803ff44213e'
p1564
aS'1f8c173f-5fd6-4cf3-a273-9a6350a7e016'
p1565
aa(lp1566
S'3691'
p1567
aS'3e9dfe85-271a-4066-b85e-5b4630adc8db'
p1568
aS'e02f02a0-4352-2db4-459f-1803ff44213e'
p1569
aS'1f8c173f-5fd6-4cf3-a273-9a6350a7e016'
p1570
aa(lp1571
S'3723'
p1572
aS'42c1dad2-09a4-4a6f-9fbc-dae835026c38'
p1573
aS'd87ef5e0-52ff-054a-fa2c-5f0776fee3c9'
p1574
aS'1f8c173f-5fd6-4cf3-a273-9a6350a7e016'
p1575
aa(lp1576
S'3724'
p1577
aS'55cb6874-938a-40ff-8875-e031ea7fe4a8'
p1578
aS'ff246d50-65bd-482f-44ab-82db028fc678'
p1579
aS'1f8c173f-5fd6-4cf3-a273-9a6350a7e016'
p1580
aa(lp1581
S'3725'
p1582
aS'6aaa27b2-7cdc-4864-9560-572c57bf6723'
p1583
aS'aa74930b-dfaa-afac-4bb7-6128841e471c'
p1584
aS'1f8c173f-5fd6-4cf3-a273-9a6350a7e016'
p1585
aa(lp1586
S'3726'
p1587
aS'fa3b53f7-758c-4b47-bd8f-f07d621f5a65'
p1588
aS'3aa8bcec-5de2-0c44-7cda-dc55754a37a4'
p1589
aS'1f8c173f-5fd6-4cf3-a273-9a6350a7e016'
p1590
aa(lp1591
S'3727'
p1592
aS'ee147a05-7713-4aa3-8e4d-874b06bfbed5'
p1593
aS'8dc1c222-0fe8-73ab-aa1c-c6bb12a89703'
p1594
aS'1f8c173f-5fd6-4cf3-a273-9a6350a7e016'
p1595
aa(lp1596
S'3728'
p1597
aS'38b15610-520a-4963-8a76-4a99d9342199'
p1598
aS'07d35411-0f63-2f07-428d-b65cb1467c94'
p1599
aS'1f8c173f-5fd6-4cf3-a273-9a6350a7e016'
p1600
aa(lp1601
S'3730'
p1602
aS'c9ed5b3a-c015-43c3-83b5-47f290858aec'
p1603
aS'ecba394d-561f-e30a-efae-ae7013247c2b'
p1604
aS'1f8c173f-5fd6-4cf3-a273-9a6350a7e016'
p1605
aa(lp1606
S'3731'
p1607
aS'38b15610-520a-4963-8a76-4a99d9342199'
p1608
aS'07d35411-0f63-2f07-428d-b65cb1467c94'
p1609
aS'1f8c173f-5fd6-4cf3-a273-9a6350a7e016'
p1610
aa(lp1611
S'3732'
p1612
aS'4262322c-0372-4374-ae27-5ca3754361f2'
p1613
aS'7b235c4d-710b-c194-e578-0b6acfec0e3c'
p1614
aS'1f8c173f-5fd6-4cf3-a273-9a6350a7e016'
p1615
aa(lp1616
S'3740'
p1617
aS'027ce267-c979-43a3-9ec6-7742528d060f'
p1618
aS'ecc9338a-492c-e01f-85fd-c3327b17da8b'
p1619
aS'1f8c173f-5fd6-4cf3-a273-9a6350a7e016'
p1620
aa(lp1621
S'3741'
p1622
aS'357dcea8-297b-412c-b1b6-0fc8c6c4cfac'
p1623
aS'204be463-4dfc-5e02-dad3-84c0ee2e6c28'
p1624
aS'1f8c173f-5fd6-4cf3-a273-9a6350a7e016'
p1625
aa(lp1626
S'3776'
p1627
aS'43f7c24e-aead-4655-8238-fdd803ca36f6'
p1628
aS'769a4c2c-40f3-7ea3-c57e-281d334d7136'
p1629
aS'1f8c173f-5fd6-4cf3-a273-9a6350a7e016'
p1630
aa(lp1631
S'3828'
p1632
aS'a108f930-d4ac-4012-90f9-e88768ae9f50'
p1633
aS'459ed390-ed57-0ecb-c725-f61d21d0f98e'
p1634
aS'1f8c173f-5fd6-4cf3-a273-9a6350a7e016'
p1635
aa(lp1636
S'3858'
p1637
ag3
ag3
ag3
aa(lp1638
S'3864'
p1639
aS'a6f6b54a-ea67-48c0-9cff-e5680294b67d'
p1640
aS'e075faf8-ee55-1e6f-71f9-e04cff76a5ec'
p1641
aS'1f8c173f-5fd6-4cf3-a273-9a6350a7e016'
p1642
aa(lp1643
S'3866'
p1644
aS'ea47392b-7684-49e4-afa1-61aa60d7932e'
p1645
aS'6bcfbf63-6c6b-13d9-712a-156cc922ab07'
p1646
aS'1f8c173f-5fd6-4cf3-a273-9a6350a7e016'
p1647
aa(lp1648
S'3871'
p1649
aS'05ea3998-81ba-46c0-aa1c-ed009985a6f9'
p1650
aS'5c2b82c1-6527-b6c1-be38-ec0fad74e9bd'
p1651
aS'1f8c173f-5fd6-4cf3-a273-9a6350a7e016'
p1652
aa(lp1653
S'3872'
p1654
aS'0068e1d4-092e-4890-8e35-ec039ebf6fa5'
p1655
aS'd7a24041-d3e6-4cc0-131a-108cb50587fa'
p1656
aS'1f8c173f-5fd6-4cf3-a273-9a6350a7e016'
p1657
aa(lp1658
S'3874'
p1659
aS'02742289-b7a1-4cb7-8afa-84875f0be94f'
p1660
aS'3999708d-ba5a-a2b9-7588-45ed9daac47a'
p1661
aS'1f8c173f-5fd6-4cf3-a273-9a6350a7e016'
p1662
aa(lp1663
S'3888'
p1664
ag3
ag3
ag3
aa(lp1665
S'3906'
p1666
aS'c3e50368-111b-4430-ba5e-577b8040262a'
p1667
aS'8482f757-8c99-6719-182a-32fa05c29952'
p1668
aS'1f8c173f-5fd6-4cf3-a273-9a6350a7e016'
p1669
aa(lp1670
S'3910'
p1671
aS'62587aa7-1168-4244-91f9-bcbd1a896190'
p1672
aS'7d4892ff-0145-17d3-c504-cd4cf3b97ab3'
p1673
aS'1f8c173f-5fd6-4cf3-a273-9a6350a7e016'
p1674
aa(lp1675
S'3911'
p1676
aS'46fc6d00-0083-43a7-bea1-90c97aa9cf8c'
p1677
aS'7829e78c-ad6c-1525-6e6f-1639fc16b0bc'
p1678
aS'1f8c173f-5fd6-4cf3-a273-9a6350a7e016'
p1679
aa(lp1680
S'3912'
p1681
aS'c3e50368-111b-4430-ba5e-577b8040262a'
p1682
aS'8482f757-8c99-6719-182a-32fa05c29952'
p1683
aS'1f8c173f-5fd6-4cf3-a273-9a6350a7e016'
p1684
aa(lp1685
S'3913'
p1686
aS'46fc6d00-0083-43a7-bea1-90c97aa9cf8c'
p1687
aS'7829e78c-ad6c-1525-6e6f-1639fc16b0bc'
p1688
aS'1f8c173f-5fd6-4cf3-a273-9a6350a7e016'
p1689
aa(lp1690
S'3917'
p1691
aS'21e68201-aea5-484c-8329-55a05a0e5e6e'
p1692
aS'2c50466c-bb4b-297c-2d83-7222099e1230'
p1693
aS'1f8c173f-5fd6-4cf3-a273-9a6350a7e016'
p1694
aa(lp1695
S'3918'
p1696
aS'51ad723f-142c-4737-ad3e-8bd9bd4852bc'
p1697
aS'b72feb97-f844-98c9-467d-8f75cec01dac'
p1698
aS'1f8c173f-5fd6-4cf3-a273-9a6350a7e016'
p1699
aa(lp1700
S'3935'
p1701
aS'4393714b-cbe7-4478-8ebc-761b0fe66841'
p1702
aS'd523480d-5590-40b5-8a81-8369443262a3'
p1703
aS'1f8c173f-5fd6-4cf3-a273-9a6350a7e016'
p1704
aa(lp1705
S'3943'
p1706
aS'9aa59056-a862-4609-a125-473603082263'
p1707
aS'29cfed0a-cfdd-175b-a92f-3039a666bb0b'
p1708
aS'1f8c173f-5fd6-4cf3-a273-9a6350a7e016'
p1709
aa(lp1710
S'3947'
p1711
aS'd1d528a9-668a-4bd4-87a3-0298e863c3e3'
p1712
aS'81fdf1a2-84c5-cd1b-9af8-836b6e4e6820'
p1713
aS'1f8c173f-5fd6-4cf3-a273-9a6350a7e016'
p1714
aa(lp1715
S'3948'
p1716
aS'd1d528a9-668a-4bd4-87a3-0298e863c3e3'
p1717
aS'81fdf1a2-84c5-cd1b-9af8-836b6e4e6820'
p1718
aS'1f8c173f-5fd6-4cf3-a273-9a6350a7e016'
p1719
aa(lp1720
S'3949'
p1721
aS'2a45f2b8-ea97-4452-9ece-d2c09c6a0cef'
p1722
aS'10cfb8ae-a8d9-b92e-331d-af5b39285453'
p1723
aS'1f8c173f-5fd6-4cf3-a273-9a6350a7e016'
p1724
aa(lp1725
S'3950'
p1726
aS'2a45f2b8-ea97-4452-9ece-d2c09c6a0cef'
p1727
aS'10cfb8ae-a8d9-b92e-331d-af5b39285453'
p1728
aS'1f8c173f-5fd6-4cf3-a273-9a6350a7e016'
p1729
aa(lp1730
S'3951'
p1731
aS'38c8cf58-f704-422d-bc9d-14c5772f0a5b'
p1732
aS'8d9ba2dc-dc1d-f3c3-2725-67af0cdc40b9'
p1733
aS'1f8c173f-5fd6-4cf3-a273-9a6350a7e016'
p1734
aa(lp1735
S'3952'
p1736
aS'38c8cf58-f704-422d-bc9d-14c5772f0a5b'
p1737
aS'8d9ba2dc-dc1d-f3c3-2725-67af0cdc40b9'
p1738
aS'1f8c173f-5fd6-4cf3-a273-9a6350a7e016'
p1739
aa(lp1740
S'3953'
p1741
aS'38c8cf58-f704-422d-bc9d-14c5772f0a5b'
p1742
aS'8d9ba2dc-dc1d-f3c3-2725-67af0cdc40b9'
p1743
aS'1f8c173f-5fd6-4cf3-a273-9a6350a7e016'
p1744
aa(lp1745
S'3954'
p1746
aS'38c8cf58-f704-422d-bc9d-14c5772f0a5b'
p1747
aS'8d9ba2dc-dc1d-f3c3-2725-67af0cdc40b9'
p1748
aS'1f8c173f-5fd6-4cf3-a273-9a6350a7e016'
p1749
aa(lp1750
S'3955'
p1751
aS'eafc0cce-d8c6-4776-a581-bed9751ddadf'
p1752
aS'0b29acc3-9246-c02a-c3bd-04eba2cea944'
p1753
aS'1f8c173f-5fd6-4cf3-a273-9a6350a7e016'
p1754
aa(lp1755
S'3956'
p1756
aS'b486f163-d43a-47de-8004-9e63e30a524d'
p1757
aS'4fd9595b-035e-73f6-f1cc-2e153f03a23a'
p1758
aS'1f8c173f-5fd6-4cf3-a273-9a6350a7e016'
p1759
aa(lp1760
S'3957'
p1761
aS'4b58313d-9a95-4235-9cb3-a2d5d9c77c10'
p1762
aS'8c77949f-b473-0701-d534-b6472b63e26e'
p1763
aS'1f8c173f-5fd6-4cf3-a273-9a6350a7e016'
p1764
aa(lp1765
S'3958'
p1766
aS'a223befd-e52d-4f00-af32-fa1722d2f6e8'
p1767
aS'7684f478-0812-f94a-e3e7-f65e6d1d9bdf'
p1768
aS'1f8c173f-5fd6-4cf3-a273-9a6350a7e016'
p1769
aa(lp1770
S'3963'
p1771
aS'80d9356c-165d-4974-adab-762e66555358'
p1772
aS'a64dfec6-3d06-d65c-ce27-f6ea5a46d12e'
p1773
aS'1f8c173f-5fd6-4cf3-a273-9a6350a7e016'
p1774
aa(lp1775
S'3964'
p1776
aS'2d3614c9-a254-49b5-8443-6e096c3ea969'
p1777
aS'764e7522-c8e6-73ab-0346-80663c0a9ded'
p1778
aS'1f8c173f-5fd6-4cf3-a273-9a6350a7e016'
p1779
aa(lp1780
S'3965'
p1781
aS'80d9356c-165d-4974-adab-762e66555358'
p1782
aS'a64dfec6-3d06-d65c-ce27-f6ea5a46d12e'
p1783
aS'1f8c173f-5fd6-4cf3-a273-9a6350a7e016'
p1784
aa(lp1785
S'3966'
p1786
aS'46fc6d00-0083-43a7-bea1-90c97aa9cf8c'
p1787
aS'7829e78c-ad6c-1525-6e6f-1639fc16b0bc'
p1788
aS'1f8c173f-5fd6-4cf3-a273-9a6350a7e016'
p1789
aa(lp1790
S'3967'
p1791
aS'72f96aba-43d5-4221-b19c-01f289440c7b'
p1792
aS'2c99d85c-274e-5839-558f-08318bf38ae3'
p1793
aS'1f8c173f-5fd6-4cf3-a273-9a6350a7e016'
p1794
aa(lp1795
S'3968'
p1796
aS'57919115-a637-4cae-a8c9-4e644e9d2b79'
p1797
aS'936c3ca0-30c9-34a4-f2c9-c22248e6b3d9'
p1798
aS'1f8c173f-5fd6-4cf3-a273-9a6350a7e016'
p1799
aa(lp1800
S'3969'
p1801
aS'bdc2b46e-299e-4337-86ae-755c37cc8073'
p1802
aS'54acb81e-6597-6468-d7c1-5bbe3b9f3b12'
p1803
aS'1f8c173f-5fd6-4cf3-a273-9a6350a7e016'
p1804
aa(lp1805
S'3970'
p1806
aS'83a045d8-a453-4499-864a-15dcdc5b7edf'
p1807
aS'92e037ff-78f8-7f6f-2f82-37f7699d05df'
p1808
aS'1f8c173f-5fd6-4cf3-a273-9a6350a7e016'
p1809
aa(lp1810
S'3974'
p1811
aS'a223befd-e52d-4f00-af32-fa1722d2f6e8'
p1812
aS'7684f478-0812-f94a-e3e7-f65e6d1d9bdf'
p1813
aS'1f8c173f-5fd6-4cf3-a273-9a6350a7e016'
p1814
aa(lp1815
S'3977'
p1816
aS'7481d1d4-e12c-41b9-bc4b-51b2cecccaa7'
p1817
aS'e2392ab1-9236-703b-8aad-70449a1e55a2'
p1818
aS'1f8c173f-5fd6-4cf3-a273-9a6350a7e016'
p1819
aa(lp1820
S'3983'
p1821
aS'eecd28d2-c3a5-4a5b-8806-2ef2b2e02c26'
p1822
aS'98ac9cdd-fcc4-d54a-1987-e0b236964247'
p1823
aS'1f8c173f-5fd6-4cf3-a273-9a6350a7e016'
p1824
aa(lp1825
S'3985'
p1826
aS'7fcf78af-2fdd-4329-bbd2-46d82357c622'
p1827
aS'a791876a-8900-7d63-6ae3-cdd60911bc16'
p1828
aS'1f8c173f-5fd6-4cf3-a273-9a6350a7e016'
p1829
aa(lp1830
S'3995'
p1831
ag3
aS'a00c97b4-733b-2c5e-6127-970460d94e6b'
p1832
aS'1f8c173f-5fd6-4cf3-a273-9a6350a7e016'
p1833
aa(lp1834
S'4009'
p1835
aS'dedeb1a7-7686-42d6-a2d7-8f5b7d71f0e2'
p1836
aS'9dc65b8e-35d5-879a-cc1f-e4c97a66a54e'
p1837
aS'1f8c173f-5fd6-4cf3-a273-9a6350a7e016'
p1838
aa(lp1839
S'4010'
p1840
aS'dedeb1a7-7686-42d6-a2d7-8f5b7d71f0e2'
p1841
aS'9dc65b8e-35d5-879a-cc1f-e4c97a66a54e'
p1842
aS'1f8c173f-5fd6-4cf3-a273-9a6350a7e016'
p1843
aa(lp1844
S'4011'
p1845
aS'dedeb1a7-7686-42d6-a2d7-8f5b7d71f0e2'
p1846
aS'9dc65b8e-35d5-879a-cc1f-e4c97a66a54e'
p1847
aS'1f8c173f-5fd6-4cf3-a273-9a6350a7e016'
p1848
aa(lp1849
S'4020'
p1850
aS'a30b83c5-3ed3-4f77-a357-a098df005d96'
p1851
aS'a0b54798-3800-2063-1832-1ec79d4562a9'
p1852
aS'1f8c173f-5fd6-4cf3-a273-9a6350a7e016'
p1853
aa(lp1854
S'4051'
p1855
aS'3dc53612-dcbc-4aab-a3ec-b249aceffedb'
p1856
aS'16fc5858-c90f-18fc-70c7-3fb751adf3e6'
p1857
aS'1f8c173f-5fd6-4cf3-a273-9a6350a7e016'
p1858
aa(lp1859
S'4052'
p1860
aS'038e7a4c-01ae-4b2f-b6be-3a5e72b1fdb6'
p1861
aS'fc1103c7-0ad0-7172-addb-bed135cbabe7'
p1862
aS'1f8c173f-5fd6-4cf3-a273-9a6350a7e016'
p1863
aa(lp1864
S'4053'
p1865
aS'038e7a4c-01ae-4b2f-b6be-3a5e72b1fdb6'
p1866
aS'fc1103c7-0ad0-7172-addb-bed135cbabe7'
p1867
aS'1f8c173f-5fd6-4cf3-a273-9a6350a7e016'
p1868
aa(lp1869
S'4054'
p1870
aS'0d306af3-cfc5-4707-bb22-769ee15393ca'
p1871
aS'5afdf345-caa0-a4da-afb7-5f0daf746c32'
p1872
aS'1f8c173f-5fd6-4cf3-a273-9a6350a7e016'
p1873
aa(lp1874
S'4059'
p1875
aS'da010b56-d769-41d2-ad3e-4089f4bf11b3'
p1876
aS'a0f44872-5d7a-5124-e243-06673d1d22ed'
p1877
aS'1f8c173f-5fd6-4cf3-a273-9a6350a7e016'
p1878
aa(lp1879
S'4064'
p1880
aS'1ea5e3ac-34ad-4899-90c6-13a8e3ec7792'
p1881
aS'7873a68e-7430-05a4-d1cf-811537f72d20'
p1882
aS'1f8c173f-5fd6-4cf3-a273-9a6350a7e016'
p1883
aa(lp1884
S'4072'
p1885
aS'a1d79f28-487a-4e6d-b555-cb4a138167e7'
p1886
aS'5b4a8c00-9f7f-2a10-9a89-89eb188fd074'
p1887
aS'1f8c173f-5fd6-4cf3-a273-9a6350a7e016'
p1888
aa(lp1889
S'4082'
p1890
ag3
ag3
ag3
aa(lp1891
S'4120'
p1892
aS'117cb247-398d-40cc-a841-2a31c265e289'
p1893
aS'7768a258-5973-bbbf-a3cc-5894f11ab5a1'
p1894
aS'1f8c173f-5fd6-4cf3-a273-9a6350a7e016'
p1895
aa(lp1896
S'4163'
p1897
aS'13c4cc14-32cb-437c-afad-bb04e51d2d66'
p1898
aS'd3e76630-cdbc-74bd-9451-741ae7ab8353'
p1899
aS'1f8c173f-5fd6-4cf3-a273-9a6350a7e016'
p1900
aa(lp1901
S'4164'
p1902
ag3
ag3
ag3
aa(lp1903
S'4166'
p1904
aS'cd8d5daf-d077-4724-b195-dd2a93f155b7'
p1905
aS'f890409a-ab62-8fa1-fa8a-92cea3d11389'
p1906
aS'1f8c173f-5fd6-4cf3-a273-9a6350a7e016'
p1907
aa(lp1908
S'4187'
p1909
aS'cd8d5daf-d077-4724-b195-dd2a93f155b7'
p1910
aS'f890409a-ab62-8fa1-fa8a-92cea3d11389'
p1911
aS'1f8c173f-5fd6-4cf3-a273-9a6350a7e016'
p1912
aa(lp1913
S'4188'
p1914
aS'a988d46d-c04d-450e-9a8f-a32c0a6f9ebe'
p1915
aS'8e65a10a-dc9d-96d1-7897-09c9c70cf9d8'
p1916
aS'1f8c173f-5fd6-4cf3-a273-9a6350a7e016'
p1917
aa(lp1918
S'4189'
p1919
aS'a988d46d-c04d-450e-9a8f-a32c0a6f9ebe'
p1920
aS'8e65a10a-dc9d-96d1-7897-09c9c70cf9d8'
p1921
aS'1f8c173f-5fd6-4cf3-a273-9a6350a7e016'
p1922
aa(lp1923
S'4202'
p1924
ag3
ag3
ag3
aa(lp1925
S'4241'
p1926
aS'8161d90c-3873-4724-bcb1-c625bf3fdd5c'
p1927
aS'c6f44bda-2ca5-4a77-93fe-bd2f5bc22d4a'
p1928
aS'1f8c173f-5fd6-4cf3-a273-9a6350a7e016'
p1929
aa(lp1930
S'4242'
p1931
aS'1201f995-fa74-4227-90df-e0c8652a7631'
p1932
aS'2907cd3a-e3ee-d062-18c5-6e5af0e3bb5a'
p1933
aS'1f8c173f-5fd6-4cf3-a273-9a6350a7e016'
p1934
aa(lp1935
S'4243'
p1936
aS'6356b56a-e82d-4e46-a6f1-0985477e87fd'
p1937
aS'fe7e519e-e95d-352f-c3eb-a963981f3444'
p1938
aS'1f8c173f-5fd6-4cf3-a273-9a6350a7e016'
p1939
aa(lp1940
S'4244'
p1941
aS'6356b56a-e82d-4e46-a6f1-0985477e87fd'
p1942
aS'fe7e519e-e95d-352f-c3eb-a963981f3444'
p1943
aS'1f8c173f-5fd6-4cf3-a273-9a6350a7e016'
p1944
aa(lp1945
S'4245'
p1946
aS'7e6f821d-5bb0-4664-9c00-b177f635e9cc'
p1947
aS'ccde762a-8acb-5feb-d5ae-ba79042abe6b'
p1948
aS'1f8c173f-5fd6-4cf3-a273-9a6350a7e016'
p1949
aa(lp1950
S'4250'
p1951
aS'6a82f1c9-2045-4f5e-bb70-d99720ced2e2'
p1952
aS'6480e1f9-883f-2016-4574-7fe91d5640d7'
p1953
aS'1f8c173f-5fd6-4cf3-a273-9a6350a7e016'
p1954
aa(lp1955
S'4251'
p1956
aS'9cf38634-6aaf-4093-888b-7b034755ad31'
p1957
aS'c970116d-082a-72a7-fb19-4defd3d9b05c'
p1958
aS'1f8c173f-5fd6-4cf3-a273-9a6350a7e016'
p1959
aa(lp1960
S'4252'
p1961
ag3
ag3
ag3
aa(lp1962
S'4253'
p1963
aS'cff16a54-a320-466a-8363-09c9e9dc7b05'
p1964
aS'fbf9ae55-df00-d957-927a-2ea4b3e5b33c'
p1965
aS'1f8c173f-5fd6-4cf3-a273-9a6350a7e016'
p1966
aa(lp1967
S'4260'
p1968
ag3
ag3
ag3
aa(lp1969
S'4261'
p1970
aS'3327d49c-8f28-4b35-9965-7aa345defc5e'
p1971
aS'cfcff76c-b085-c21f-724a-eddbff4b6bef'
p1972
aS'1f8c173f-5fd6-4cf3-a273-9a6350a7e016'
p1973
aa(lp1974
S'4262'
p1975
aS'345f2501-e471-4333-a523-6b7d6d8d76ac'
p1976
aS'5990cb9f-26bc-15f9-28fb-0b583e36ea8c'
p1977
aS'1f8c173f-5fd6-4cf3-a273-9a6350a7e016'
p1978
aa(lp1979
S'4282'
p1980
ag3
ag3
ag3
aa(lp1981
S'4287'
p1982
aS'd20f7393-75c3-4ad3-8049-c47de9861a25'
p1983
aS'2e93ce75-28a8-c232-4d09-163f0a12bd87'
p1984
aS'1f8c173f-5fd6-4cf3-a273-9a6350a7e016'
p1985
aa(lp1986
S'4296'
p1987
aS'4744afcd-115a-49aa-beb1-e7933530cfbb'
p1988
aS'6bc6e0b9-78ac-bd50-e9e2-787caecb253a'
p1989
aS'1f8c173f-5fd6-4cf3-a273-9a6350a7e016'
p1990
aa(lp1991
S'4317'
p1992
aS'296d1100-8877-466c-a178-52998d1ab5af'
p1993
aS'7b4a9fce-b10a-973f-dcb5-ab8eb9be6fb4'
p1994
aS'1f8c173f-5fd6-4cf3-a273-9a6350a7e016'
p1995
aa(lp1996
S'4319'
p1997
aS'2f5a9933-0377-464c-83a5-0e368aea4ef8'
p1998
aS'3319664b-4196-803a-5cc9-66c6bb8d76ce'
p1999
aS'1f8c173f-5fd6-4cf3-a273-9a6350a7e016'
p2000
aa(lp2001
S'4329'
p2002
ag3
ag3
ag3
aa(lp2003
S'4330'
p2004
ag3
ag3
ag3
aa(lp2005
S'4331'
p2006
ag3
ag3
ag3
aa(lp2007
S'4332'
p2008
aS'318988f1-e0ee-4a04-9d0b-27c8c69ba7bf'
p2009
aS'a0acd2d4-1394-6fdd-3cb3-441ed1bb3b4e'
p2010
aS'1f8c173f-5fd6-4cf3-a273-9a6350a7e016'
p2011
aa(lp2012
S'4333'
p2013
aS'318988f1-e0ee-4a04-9d0b-27c8c69ba7bf'
p2014
aS'a0acd2d4-1394-6fdd-3cb3-441ed1bb3b4e'
p2015
aS'1f8c173f-5fd6-4cf3-a273-9a6350a7e016'
p2016
aa(lp2017
S'4337'
p2018
aS'b1356f9e-c9a5-4618-9cfc-efc41c694a60'
p2019
aS'616fd410-5257-9ce7-7931-9d9a18f1935b'
p2020
aS'1f8c173f-5fd6-4cf3-a273-9a6350a7e016'
p2021
aa(lp2022
S'4338'
p2023
aS'b6f16381-c01f-4859-a577-3792ad91a03f'
p2024
aS'2b31a410-142a-20f7-f045-6ee7430c0ee3'
p2025
aS'1f8c173f-5fd6-4cf3-a273-9a6350a7e016'
p2026
aa(lp2027
S'4339'
p2028
ag3
ag3
ag3
aa(lp2029
S'4341'
p2030
aS'f7f8838b-fae1-424a-a2bb-bc80d935121f'
p2031
aS'29ea50a0-2947-eac9-e34c-2fd70f6b7d0c'
p2032
aS'1f8c173f-5fd6-4cf3-a273-9a6350a7e016'
p2033
aa(lp2034
S'4342'
p2035
aS'f7f8838b-fae1-424a-a2bb-bc80d935121f'
p2036
aS'29ea50a0-2947-eac9-e34c-2fd70f6b7d0c'
p2037
aS'1f8c173f-5fd6-4cf3-a273-9a6350a7e016'
p2038
aa(lp2039
S'4359'
p2040
aS'466b9b8b-6491-4c1b-b188-e939adcb8249'
p2041
aS'68d80c8d-b0f9-ce05-d4b5-f20d7ee815b1'
p2042
aS'1f8c173f-5fd6-4cf3-a273-9a6350a7e016'
p2043
aa(lp2044
S'4360'
p2045
aS'28dd9e97-6aeb-4903-a113-9eebdeb7300e'
p2046
aS'88400881-7a95-3cbd-ee40-8bbc26ed05a2'
p2047
aS'1f8c173f-5fd6-4cf3-a273-9a6350a7e016'
p2048
aa(lp2049
S'4371'
p2050
aS'efed6e15-a209-42ba-a913-d67e114c5d5a'
p2051
aS'd4fc697a-eb9a-5cd8-197f-890e251df705'
p2052
aS'1f8c173f-5fd6-4cf3-a273-9a6350a7e016'
p2053
aa(lp2054
S'4375'
p2055
aS'61d467c5-ef68-46a9-a3aa-d36c94c85600'
p2056
aS'464b55b5-df95-d39b-9d67-614690d0ad07'
p2057
aS'1f8c173f-5fd6-4cf3-a273-9a6350a7e016'
p2058
aa(lp2059
S'4394'
p2060
aS'55e72e1e-b8e9-42b5-85a1-06d1bb451ffd'
p2061
aS'43c88278-2975-aafd-a9fa-b7fd477ac86d'
p2062
aS'1f8c173f-5fd6-4cf3-a273-9a6350a7e016'
p2063
aa(lp2064
S'4395'
p2065
aS'a8366515-588f-419a-a801-e09cd611e013'
p2066
aS'093a43ab-7a25-04aa-c51a-61dfd9c910b2'
p2067
aS'1f8c173f-5fd6-4cf3-a273-9a6350a7e016'
p2068
aa(lp2069
S'4397'
p2070
aS'0c726636-ab57-45cb-81de-ae33a1e6cc4e'
p2071
aS'ffb29f75-99f4-adec-0b87-70e55a8908b5'
p2072
aS'1f8c173f-5fd6-4cf3-a273-9a6350a7e016'
p2073
aa(lp2074
S'4413'
p2075
aS'12049fec-8699-4bc8-a605-44eee9ce038f'
p2076
aS'5f56ada5-3e74-3f88-b203-d7112a638bed'
p2077
aS'1f8c173f-5fd6-4cf3-a273-9a6350a7e016'
p2078
aa(lp2079
S'4416'
p2080
aS'4d9e72ae-d393-4220-b813-656200920c0b'
p2081
aS'7c9248ea-ce3f-30f8-0a10-3c30b55dd518'
p2082
aS'1f8c173f-5fd6-4cf3-a273-9a6350a7e016'
p2083
aa(lp2084
S'4417'
p2085
aS'2a377447-cad6-45bd-8351-aebee2b22325'
p2086
aS'8558bd4f-609f-7c01-a2ea-b7ed1c1b1ed4'
p2087
aS'1f8c173f-5fd6-4cf3-a273-9a6350a7e016'
p2088
aa(lp2089
S'4418'
p2090
aS'7800f304-29cd-4b56-9b7e-e0ef5e0f9e0b'
p2091
aS'4c505d23-0e67-0cc9-5691-18afc09ccde8'
p2092
aS'1f8c173f-5fd6-4cf3-a273-9a6350a7e016'
p2093
aa(lp2094
S'4419'
p2095
aS'ee9b82fa-3ef6-46aa-afac-5b768764018a'
p2096
aS'b657f38d-9bb0-6493-481e-ad0ac1c85ca4'
p2097
aS'1f8c173f-5fd6-4cf3-a273-9a6350a7e016'
p2098
aa(lp2099
S'4420'
p2100
aS'51695f70-cdcf-4c72-93d7-140a29a525b1'
p2101
aS'938a7394-faee-0cd0-cedd-2fdf87280a69'
p2102
aS'1f8c173f-5fd6-4cf3-a273-9a6350a7e016'
p2103
aa(lp2104
S'4421'
p2105
aS'27c693b5-f11b-415e-ba42-ea2b78db2460'
p2106
aS'4c99ccfc-fe91-6d1a-ef44-a06fc47f6297'
p2107
aS'1f8c173f-5fd6-4cf3-a273-9a6350a7e016'
p2108
aa(lp2109
S'4438'
p2110
ag3
ag3
ag3
aa(lp2111
S'4446'
p2112
aS'03282f01-5672-4414-8aa9-efd0ef137e80'
p2113
aS'ca73c102-bc05-5aed-0545-2c98cd51df60'
p2114
aS'1f8c173f-5fd6-4cf3-a273-9a6350a7e016'
p2115
aa(lp2116
S'4447'
p2117
aS'27beb0cd-1430-4e2b-9f0c-a5aa27545699'
p2118
aS'83f6f565-c0dd-f512-112d-e5b4808477b7'
p2119
aS'1f8c173f-5fd6-4cf3-a273-9a6350a7e016'
p2120
aa(lp2121
S'4476'
p2122
ag3
ag3
ag3
aa(lp2123
S'4515'
p2124
aS'087bd1fd-2aca-42de-b0b1-0bae5d606f11'
p2125
aS'9f16e925-c9ea-f47e-9994-c79fa6d9ef9c'
p2126
aS'1f8c173f-5fd6-4cf3-a273-9a6350a7e016'
p2127
aa(lp2128
S'4516'
p2129
aS'05805ed6-eb4d-42f5-8a17-d2cdcd37cbaf'
p2130
aS'ea32b039-db7d-b9ad-f3c5-348ab61d1f88'
p2131
aS'1f8c173f-5fd6-4cf3-a273-9a6350a7e016'
p2132
aa(lp2133
S'4517'
p2134
aS'9ec4f943-1c8f-43f5-acda-461497cc44dd'
p2135
aS'd9fc8b24-ccbb-7730-562d-ebb16c35b6b1'
p2136
aS'1f8c173f-5fd6-4cf3-a273-9a6350a7e016'
p2137
aa(lp2138
S'4520'
p2139
aS'f635c406-4fbc-4cbf-bba1-6f71fdf552a2'
p2140
aS'fdca164d-04bf-6eec-4179-2933bada5aa7'
p2141
aS'1f8c173f-5fd6-4cf3-a273-9a6350a7e016'
p2142
aa(lp2143
S'4528'
p2144
ag3
ag3
ag3
aa(lp2145
S'4534'
p2146
aS'75bbcf85-e5e2-44e8-bbdd-7b71bc16ec29'
p2147
aS'0b6b5a9c-f06d-1fd1-2459-0a749e15ac82'
p2148
aS'1f8c173f-5fd6-4cf3-a273-9a6350a7e016'
p2149
aa(lp2150
S'4560'
p2151
aS'5c4a0290-64b4-4822-a95f-05b42210d3f1'
p2152
aS'f3431eb2-ea0f-276b-72be-32b13688bd3a'
p2153
aS'1f8c173f-5fd6-4cf3-a273-9a6350a7e016'
p2154
aa(lp2155
S'4562'
p2156
aS'afff2409-bce1-4d49-b430-c189203951dd'
p2157
aS'5b21fabf-7bbe-2e60-4b2e-d0076d473778'
p2158
aS'1f8c173f-5fd6-4cf3-a273-9a6350a7e016'
p2159
aa(lp2160
S'4563'
p2161
aS'91c95d95-ec80-48a3-b7d8-8dd9f2ccdd5c'
p2162
aS'0f063779-a9e2-6691-cdc8-2cc91a664549'
p2163
aS'1f8c173f-5fd6-4cf3-a273-9a6350a7e016'
p2164
aa(lp2165
S'4564'
p2166
aS'6efbde10-f414-4bc5-a3af-6c53db720598'
p2167
aS'6f913edb-d6f4-3a73-8239-2823c7323811'
p2168
aS'1f8c173f-5fd6-4cf3-a273-9a6350a7e016'
p2169
aa(lp2170
S'4566'
p2171
aS'7d332e72-1868-4ec8-93cd-024bf3aaa34f'
p2172
aS'ca31adfa-6b58-aba2-1766-33d358582108'
p2173
aS'1f8c173f-5fd6-4cf3-a273-9a6350a7e016'
p2174
aa(lp2175
S'4581'
p2176
aS'd4fda0f0-dcf6-4c2a-bca0-51f0935f6285'
p2177
aS'd7d16bce-913c-8e6c-7c39-53b81c8b143d'
p2178
aS'1f8c173f-5fd6-4cf3-a273-9a6350a7e016'
p2179
aa(lp2180
S'4583'
p2181
aS'9d2f95a0-c021-46ba-a66e-385390bcbf56'
p2182
aS'5588ea66-b415-30d6-cd5c-16481760a2f2'
p2183
aS'1f8c173f-5fd6-4cf3-a273-9a6350a7e016'
p2184
aa(lp2185
S'4604'
p2186
ag3
ag3
ag3
aa(lp2187
S'4605'
p2188
aS'8e0c544f-1a18-4721-b9be-dda3aea541a2'
p2189
aS'144fcd90-ebef-882b-fe51-9b9dd3ade954'
p2190
aS'1f8c173f-5fd6-4cf3-a273-9a6350a7e016'
p2191
aa(lp2192
S'4606'
p2193
ag3
ag3
ag3
aa(lp2194
S'4608'
p2195
aS'f19dec78-e46d-45b8-844f-a1e2556f9322'
p2196
aS'27b2b512-59f4-8b37-3c4f-5a1f67e8e166'
p2197
aS'1f8c173f-5fd6-4cf3-a273-9a6350a7e016'
p2198
aa(lp2199
S'4609'
p2200
aS'ff96dc31-cf06-479a-a84c-441c5344fd0c'
p2201
aS'af9e790a-3891-2893-7437-90a1932eff0a'
p2202
aS'1f8c173f-5fd6-4cf3-a273-9a6350a7e016'
p2203
aa(lp2204
S'4610'
p2205
aS'eb26a47d-6f3f-44ff-88f5-179f8c380c42'
p2206
aS'f1e95db0-f5a6-55ef-3999-e03b48b04ead'
p2207
aS'1f8c173f-5fd6-4cf3-a273-9a6350a7e016'
p2208
aa(lp2209
S'4611'
p2210
ag3
ag3
ag3
aa(lp2211
S'4612'
p2212
aS'e6b25263-51fe-4bde-92c3-af267495d6d1'
p2213
aS'1a25eeaf-6486-219a-a0df-7e6b64a2adc2'
p2214
aS'1f8c173f-5fd6-4cf3-a273-9a6350a7e016'
p2215
aa(lp2216
S'4613'
p2217
aS'e6b25263-51fe-4bde-92c3-af267495d6d1'
p2218
aS'1a25eeaf-6486-219a-a0df-7e6b64a2adc2'
p2219
aS'1f8c173f-5fd6-4cf3-a273-9a6350a7e016'
p2220
aa(lp2221
S'4614'
p2222
aS'f3b31567-94fa-4de0-9f10-5b8303baa4c1'
p2223
aS'5bc00ceb-b025-1676-f9c3-2da6a5facd4a'
p2224
aS'1f8c173f-5fd6-4cf3-a273-9a6350a7e016'
p2225
aa(lp2226
S'4618'
p2227
ag3
ag3
ag3
aa(lp2228
S'4619'
p2229
ag3
ag3
ag3
aa(lp2230
S'4620'
p2231
ag3
ag3
ag3
aa(lp2232
S'4630'
p2233
aS'3fdccd61-df02-4d6d-834c-a5b12f63c690'
p2234
aS'33311277-9fb3-1a00-b552-6c7ca523a88d'
p2235
aS'1f8c173f-5fd6-4cf3-a273-9a6350a7e016'
p2236
aa(lp2237
S'4631'
p2238
aS'17093c23-e3b9-47c1-ac46-05287c442ddd'
p2239
aS'e1af4453-a4f2-ccf9-0f97-17566aa5bbab'
p2240
aS'1f8c173f-5fd6-4cf3-a273-9a6350a7e016'
p2241
aa(lp2242
S'4637'
p2243
aS'dc98483a-e52e-499a-9284-a090f99cc646'
p2244
aS'fbbe6782-2254-8ed8-29f5-5611f4a4c7d0'
p2245
aS'1f8c173f-5fd6-4cf3-a273-9a6350a7e016'
p2246
aa(lp2247
S'4649'
p2248
aS'78c69045-cfc7-4227-acf9-d0619a758d97'
p2249
aS'863f48f8-7d43-bc0d-96e0-708e3f6c1b4e'
p2250
aS'1f8c173f-5fd6-4cf3-a273-9a6350a7e016'
p2251
aa(lp2252
S'4659'
p2253
aS'66bace67-4c0f-4302-825e-d2eac9bd45aa'
p2254
aS'07904aa7-92c3-0c17-3839-26337aa281fe'
p2255
aS'1f8c173f-5fd6-4cf3-a273-9a6350a7e016'
p2256
aa(lp2257
S'4668'
p2258
aS'5b372d78-49d2-4044-afd3-d9a8fc55f3a2'
p2259
aS'ad4e1c2d-4038-e6dd-24de-81492bbd8973'
p2260
aS'1f8c173f-5fd6-4cf3-a273-9a6350a7e016'
p2261
aa(lp2262
S'4669'
p2263
aS'4b3d7d7d-33b0-47cf-8f32-7e5a12677a87'
p2264
aS'e7689cae-a5e7-5421-6f1f-332cfbbb8c90'
p2265
aS'1f8c173f-5fd6-4cf3-a273-9a6350a7e016'
p2266
aa(lp2267
S'4670'
p2268
aS'0a181ce7-1725-4b24-ac04-02551a50cbfc'
p2269
aS'2b358e3e-4fcd-5b52-c1a6-0099bbfefb84'
p2270
aS'1f8c173f-5fd6-4cf3-a273-9a6350a7e016'
p2271
aa(lp2272
S'4671'
p2273
aS'93065eeb-c975-47f5-bf25-14b5a46ccd6c'
p2274
aS'e2d55713-e6c0-d5de-1a38-b99d802f6bfb'
p2275
aS'1f8c173f-5fd6-4cf3-a273-9a6350a7e016'
p2276
aa(lp2277
S'4672'
p2278
aS'd208e6c1-740f-4441-805e-acce5b7b1d8c'
p2279
aS'fa692b77-5111-e87e-6968-3eceddf46c81'
p2280
aS'1f8c173f-5fd6-4cf3-a273-9a6350a7e016'
p2281
aa(lp2282
S'4673'
p2283
aS'469e9822-1520-46ec-a213-87d929104c3c'
p2284
aS'0cc9a066-310c-3867-2dea-94cb5129adc0'
p2285
aS'1f8c173f-5fd6-4cf3-a273-9a6350a7e016'
p2286
aa(lp2287
S'4674'
p2288
aS'5b89a666-f254-4223-9bd6-6311b83d0b4c'
p2289
aS'cdbf1e89-0a41-d5e3-6fe3-0cc29ab07962'
p2290
aS'1f8c173f-5fd6-4cf3-a273-9a6350a7e016'
p2291
aa(lp2292
S'4675'
p2293
aS'05ba5de7-2dbf-4319-a575-a86aff4b1469'
p2294
aS'a6dbefc0-b3df-bdb5-04b4-98d8333fcb0f'
p2295
aS'1f8c173f-5fd6-4cf3-a273-9a6350a7e016'
p2296
aa(lp2297
S'4676'
p2298
aS'899d1c66-a1b2-40ce-bebe-b456ff819e95'
p2299
aS'4edf1e7d-fdc3-d62d-b79a-66fbd48534a4'
p2300
aS'1f8c173f-5fd6-4cf3-a273-9a6350a7e016'
p2301
aa(lp2302
S'4677'
p2303
aS'1fca5cd2-7149-4066-938a-93fbf1946c3a'
p2304
aS'8b3af484-d8ad-b8e3-ff55-f2286270e88a'
p2305
aS'1f8c173f-5fd6-4cf3-a273-9a6350a7e016'
p2306
aa(lp2307
S'4678'
p2308
aS'1fca5cd2-7149-4066-938a-93fbf1946c3a'
p2309
aS'8b3af484-d8ad-b8e3-ff55-f2286270e88a'
p2310
aS'1f8c173f-5fd6-4cf3-a273-9a6350a7e016'
p2311
aa(lp2312
S'4680'
p2313
aS'8388c22b-110e-4d59-9fa7-b210b2e36508'
p2314
aS'a0c04a4f-4515-4f88-45c0-c89dbfbd65af'
p2315
aS'1f8c173f-5fd6-4cf3-a273-9a6350a7e016'
p2316
aa(lp2317
S'4681'
p2318
aS'8e9e8511-f232-4466-b60d-3792a2d820a3'
p2319
aS'89fa678c-8641-db12-461d-8d793e2eb0ac'
p2320
aS'1f8c173f-5fd6-4cf3-a273-9a6350a7e016'
p2321
aa(lp2322
S'4682'
p2323
aS'6c2da612-8982-42bb-9429-27d5c6efd744'
p2324
aS'7ba7e2bb-7473-f311-83a9-996e18630728'
p2325
aS'1f8c173f-5fd6-4cf3-a273-9a6350a7e016'
p2326
aa(lp2327
S'4683'
p2328
aS'b517738d-1040-4ec7-9052-8fb58292f58d'
p2329
aS'61c9837d-756e-544a-7498-81e4c8497f36'
p2330
aS'1f8c173f-5fd6-4cf3-a273-9a6350a7e016'
p2331
aa(lp2332
S'4684'
p2333
aS'addfdffb-bd82-46d3-b06d-e4af652f6cfb'
p2334
aS'fa41b1fd-ddf0-6bd7-a861-dc9ebbc991e4'
p2335
aS'1f8c173f-5fd6-4cf3-a273-9a6350a7e016'
p2336
aa(lp2337
S'4685'
p2338
aS'da595a9b-f0fb-4345-958b-58827f1b0026'
p2339
aS'e690f867-544e-001e-1bdd-bdb63f5db829'
p2340
aS'1f8c173f-5fd6-4cf3-a273-9a6350a7e016'
p2341
aa(lp2342
S'4687'
p2343
aS'1134337c-ac36-4ee3-9c50-626a951ba087'
p2344
aS'd4e7944a-ea73-2cd1-75fa-1cd234af1c09'
p2345
aS'1f8c173f-5fd6-4cf3-a273-9a6350a7e016'
p2346
aa(lp2347
S'4688'
p2348
aS'35447f9a-e607-4700-a2c2-136904a58299'
p2349
aS'9438c830-6f4c-d719-8809-55071c9cabf3'
p2350
aS'1f8c173f-5fd6-4cf3-a273-9a6350a7e016'
p2351
aa(lp2352
S'4689'
p2353
aS'c7a67238-9316-4432-9e14-5404d7801387'
p2354
aS'bebba8de-8ea5-b0ef-527e-197df2ce84de'
p2355
aS'1f8c173f-5fd6-4cf3-a273-9a6350a7e016'
p2356
aa(lp2357
S'4691'
p2358
aS'ae0ce275-d356-402f-a098-28bd51de0b4b'
p2359
aS'8a9e3012-2594-c4d2-ef54-d87af10b87a0'
p2360
aS'1f8c173f-5fd6-4cf3-a273-9a6350a7e016'
p2361
aa(lp2362
S'4693'
p2363
aS'8ea64aaa-0315-483e-9b27-af2797f778d5'
p2364
aS'2f096b44-596c-a9ce-b7ef-40d0fd1210f1'
p2365
aS'1f8c173f-5fd6-4cf3-a273-9a6350a7e016'
p2366
aa(lp2367
S'4711'
p2368
aS'ab5c9955-408f-4db4-b4be-6418b2a60675'
p2369
aS'884284e5-9eca-0bd1-c24c-77d6f4607ef9'
p2370
aS'1f8c173f-5fd6-4cf3-a273-9a6350a7e016'
p2371
aa(lp2372
S'4712'
p2373
aS'2c385535-1989-4d41-a646-ca883ab880c1'
p2374
aS'd45ae90c-cdb5-b2b3-6f75-ebcb2522dff5'
p2375
aS'1f8c173f-5fd6-4cf3-a273-9a6350a7e016'
p2376
aa(lp2377
S'4713'
p2378
aS'739e1076-c740-4528-bc18-e6c746801c50'
p2379
aS'07ec841e-14c6-2fbd-f03d-f3f2b5c677d2'
p2380
aS'1f8c173f-5fd6-4cf3-a273-9a6350a7e016'
p2381
aa(lp2382
S'4714'
p2383
aS'03d17ec8-531e-432d-ad58-3a6d56f5ee7c'
p2384
aS'800b02d9-833c-9537-6d96-a6b2bcd38093'
p2385
aS'1f8c173f-5fd6-4cf3-a273-9a6350a7e016'
p2386
aa(lp2387
S'4719'
p2388
ag3
ag3
ag3
aa(lp2389
S'4722'
p2390
aS'65dc35db-50de-4a1a-bed6-44f5a8ada318'
p2391
aS'084c7229-d418-d62d-1187-335b5e26641d'
p2392
aS'1f8c173f-5fd6-4cf3-a273-9a6350a7e016'
p2393
aa(lp2394
S'4762'
p2395
aS'cfadfe1d-9266-46b1-8b82-41d8b6b98c8d'
p2396
aS'2d13b4ce-21eb-7f61-e1eb-213d7176fc26'
p2397
aS'1f8c173f-5fd6-4cf3-a273-9a6350a7e016'
p2398
aa(lp2399
S'4778'
p2400
aS'2d96108f-8852-4a63-a68b-79371ef9a297'
p2401
aS'79a1c959-975a-0d69-6fd7-dd3aeef207dc'
p2402
aS'1f8c173f-5fd6-4cf3-a273-9a6350a7e016'
p2403
aa(lp2404
S'4781'
p2405
aS'74019d70-0bb5-40bd-8518-43107d1de95b'
p2406
aS'2ef97d0f-d5a6-47a1-698e-53a6eaa1fb38'
p2407
aS'1f8c173f-5fd6-4cf3-a273-9a6350a7e016'
p2408
aa(lp2409
S'4830'
p2410
aS'53a57877-1f78-4ed1-b6b2-4b1259d2fabb'
p2411
aS'f865ddbc-3e3a-a2df-6091-8759c9fac3e3'
p2412
aS'1f8c173f-5fd6-4cf3-a273-9a6350a7e016'
p2413
aa(lp2414
S'4841'
p2415
ag3
ag3
ag3
aa(lp2416
S'4893'
p2417
aS'b7a4b220-abad-4c7c-818d-7bf8b1474141'
p2418
aS'6726320f-3257-b1ec-d631-ce768739fad8'
p2419
aS'1f8c173f-5fd6-4cf3-a273-9a6350a7e016'
p2420
aa(lp2421
S'4897'
p2422
ag3
ag3
ag3
aa(lp2423
S'4898'
p2424
ag3
ag3
ag3
aa(lp2425
S'4899'
p2426
ag3
ag3
ag3
aa(lp2427
S'4900'
p2428
aS'fd51b34e-deee-40b4-ae13-424d9db2ff3a'
p2429
aS'506c26d0-6965-75b9-f15a-4d059b5f0930'
p2430
aS'1f8c173f-5fd6-4cf3-a273-9a6350a7e016'
p2431
aa(lp2432
S'4909'
p2433
aS'e7bd0da7-1bf7-4579-afa5-cd216ccddcee'
p2434
aS'f50d564b-1eff-5745-acc9-1fab8e9bbf70'
p2435
aS'1f8c173f-5fd6-4cf3-a273-9a6350a7e016'
p2436
aa(lp2437
S'4927'
p2438
ag3
ag3
ag3
aa(lp2439
S'4928'
p2440
ag3
ag3
ag3
aa(lp2441
S'4982'
p2442
aS'f0c7cbaa-01e1-4318-8f1b-1479567c7bf4'
p2443
aS'ea1e022a-074b-2efc-0979-0d22884a8dc2'
p2444
aS'1f8c173f-5fd6-4cf3-a273-9a6350a7e016'
p2445
aa(lp2446
S'4983'
p2447
aS'328e7d30-e1b6-4b33-98e8-049f8897ffaa'
p2448
aS'e786ba63-a535-fbe1-3c7a-fc208b3dfa3e'
p2449
aS'1f8c173f-5fd6-4cf3-a273-9a6350a7e016'
p2450
aa(lp2451
S'4988'
p2452
aS'77ef1132-e228-4e59-92ce-b80b2c0fd039'
p2453
aS'1831fde6-90fb-362c-49d5-36ec70725dbd'
p2454
aS'1f8c173f-5fd6-4cf3-a273-9a6350a7e016'
p2455
aa(lp2456
S'4992'
p2457
aS'c0a25e67-edda-4b7a-94b9-cbff638f83ab'
p2458
aS'9fb2e062-f1de-0235-60ff-39d6dfe655f4'
p2459
aS'1f8c173f-5fd6-4cf3-a273-9a6350a7e016'
p2460
aa(lp2461
S'4993'
p2462
aS'c0a25e67-edda-4b7a-94b9-cbff638f83ab'
p2463
aS'9fb2e062-f1de-0235-60ff-39d6dfe655f4'
p2464
aS'1f8c173f-5fd6-4cf3-a273-9a6350a7e016'
p2465
aa(lp2466
S'5002'
p2467
aS'14c2bc8c-4584-4077-a4a6-b62d18a330ef'
p2468
aS'98b901cf-840e-0ac3-6479-4bb3f518318b'
p2469
aS'1f8c173f-5fd6-4cf3-a273-9a6350a7e016'
p2470
aa(lp2471
S'5006'
p2472
aS'397c3040-e77b-4428-9164-d54d44e47e1c'
p2473
aS'2d15098c-c3d9-8a37-ee3b-82ed19ff6371'
p2474
aS'1f8c173f-5fd6-4cf3-a273-9a6350a7e016'
p2475
aa(lp2476
S'5015'
p2477
ag3
ag3
ag3
aa(lp2478
S'5043'
p2479
aS'8569abfe-3769-45e2-8a15-82d8d1dc0b13'
p2480
aS'3e58c806-8da1-a847-4505-ed9027649f43'
p2481
aS'1f8c173f-5fd6-4cf3-a273-9a6350a7e016'
p2482
aa(lp2483
S'5045'
p2484
aS'fbaf1e54-2084-459f-87a2-685ebae06c1c'
p2485
aS'5937e934-18a7-900c-e2d4-9a358fb1d696'
p2486
aS'1f8c173f-5fd6-4cf3-a273-9a6350a7e016'
p2487
aa(lp2488
S'5046'
p2489
aS'a2a562d5-9d1a-4ef5-aa90-536833338bf8'
p2490
aS'42e2c1e5-7ca5-ed75-0bb4-b39a50c4561e'
p2491
aS'1f8c173f-5fd6-4cf3-a273-9a6350a7e016'
p2492
aa(lp2493
S'5051'
p2494
aS'29347a8d-0b56-4246-a304-7c3da299f02e'
p2495
aS'31268780-3fa2-164a-78a8-99e7a2974582'
p2496
aS'1f8c173f-5fd6-4cf3-a273-9a6350a7e016'
p2497
aa(lp2498
S'5052'
p2499
aS'90f49086-92c1-4a41-a2eb-312f08b539a4'
p2500
aS'befa6cf6-ec34-1007-e74f-379e324a3ee9'
p2501
aS'1f8c173f-5fd6-4cf3-a273-9a6350a7e016'
p2502
aa(lp2503
S'5058'
p2504
aS'90f49086-92c1-4a41-a2eb-312f08b539a4'
p2505
aS'befa6cf6-ec34-1007-e74f-379e324a3ee9'
p2506
aS'1f8c173f-5fd6-4cf3-a273-9a6350a7e016'
p2507
aa(lp2508
S'5061'
p2509
aS'712b8ff2-daee-40fe-862c-36bf36076f71'
p2510
aS'f504239d-759c-1113-f323-72fc7283e898'
p2511
aS'1f8c173f-5fd6-4cf3-a273-9a6350a7e016'
p2512
aa(lp2513
S'5081'
p2514
aS'0a28bae0-de72-4170-b311-cd1ace1a8c0c'
p2515
aS'599e22cf-e975-a49f-78e8-7405aa41a61b'
p2516
aS'1f8c173f-5fd6-4cf3-a273-9a6350a7e016'
p2517
aa(lp2518
S'5082'
p2519
aS'9a0facef-2b81-45db-a819-dc08785b90db'
p2520
aS'f2833eee-386b-7763-c76e-ef7607e59402'
p2521
aS'1f8c173f-5fd6-4cf3-a273-9a6350a7e016'
p2522
aa(lp2523
S'5091'
p2524
ag3
ag3
ag3
aa(lp2525
S'5092'
p2526
ag3
ag3
ag3
aa(lp2527
S'5094'
p2528
ag3
ag3
ag3
aa(lp2529
S'5095'
p2530
ag3
ag3
ag3
aa(lp2531
S'5096'
p2532
aS'9f90d9d5-1b4e-4235-9b6e-8a6423ffd198'
p2533
aS'62b7d363-9b4a-c898-1df1-4901924d7ac3'
p2534
aS'1f8c173f-5fd6-4cf3-a273-9a6350a7e016'
p2535
aa(lp2536
S'5097'
p2537
aS'b8ecebc6-424d-4458-9203-33cafc1c45e4'
p2538
aS'91ef5c06-70c8-f5f1-af77-728b8dfe5dcb'
p2539
aS'1f8c173f-5fd6-4cf3-a273-9a6350a7e016'
p2540
aa(lp2541
S'5125'
p2542
ag3
ag3
ag3
aa(lp2543
S'5168'
p2544
aS'2da3be65-72ed-41a4-88d0-d04cb60508c5'
p2545
aS'cb3c2734-c6f9-c23e-fbab-d6b56e34ec72'
p2546
aS'1f8c173f-5fd6-4cf3-a273-9a6350a7e016'
p2547
aa(lp2548
S'5169'
p2549
aS'0de785a8-74dd-439b-b9e4-d5ef97e84017'
p2550
aS'304b7c0a-9b58-7d10-a331-c5a53cbb8831'
p2551
aS'1f8c173f-5fd6-4cf3-a273-9a6350a7e016'
p2552
aa(lp2553
S'5170'
p2554
aS'ec487df3-a5e8-4a5e-a2ee-d5ed14d86f9d'
p2555
aS'e59deb23-a2e1-e2ed-bf16-40082f1322ea'
p2556
aS'1f8c173f-5fd6-4cf3-a273-9a6350a7e016'
p2557
aa(lp2558
S'5171'
p2559
ag3
ag3
ag3
aa(lp2560
S'5172'
p2561
aS'1a0e7b5c-5447-4c82-9190-ae662fc8c3fa'
p2562
aS'10d3bf0a-0497-3db3-0102-aca0ce318379'
p2563
aS'1f8c173f-5fd6-4cf3-a273-9a6350a7e016'
p2564
aa(lp2565
S'5180'
p2566
aS'cd8d5daf-d077-4724-b195-dd2a93f155b7'
p2567
aS'aa74e22e-956d-3a1d-0a9a-19f15aa79cb9'
p2568
aS'1f8c173f-5fd6-4cf3-a273-9a6350a7e016'
p2569
aa(lp2570
S'5181'
p2571
aS'cd8d5daf-d077-4724-b195-dd2a93f155b7'
p2572
aS'aa74e22e-956d-3a1d-0a9a-19f15aa79cb9'
p2573
aS'1f8c173f-5fd6-4cf3-a273-9a6350a7e016'
p2574
aa(lp2575
S'5183'
p2576
aS'cd8d5daf-d077-4724-b195-dd2a93f155b7'
p2577
aS'aa74e22e-956d-3a1d-0a9a-19f15aa79cb9'
p2578
aS'1f8c173f-5fd6-4cf3-a273-9a6350a7e016'
p2579
aa(lp2580
S'5184'
p2581
aS'ad1f5d17-33cc-42d5-a0fa-d31cdd0832c1'
p2582
aS'abf2caaf-f2c5-d522-13e4-e0bfa98f7a6e'
p2583
aS'1f8c173f-5fd6-4cf3-a273-9a6350a7e016'
p2584
aa(lp2585
S'5190'
p2586
aS'a46eb7ba-f168-4b3c-9ea4-c9327a5da24f'
p2587
aS'668480a9-7753-fba1-6046-b526c83f4e7a'
p2588
aS'1f8c173f-5fd6-4cf3-a273-9a6350a7e016'
p2589
aa(lp2590
S'5191'
p2591
aS'384e0c5f-568d-41e1-b4d0-b7df9d92d6e5'
p2592
aS'bab350ff-0476-bd03-41ef-ce31c2937b47'
p2593
aS'1f8c173f-5fd6-4cf3-a273-9a6350a7e016'
p2594
aa(lp2595
S'5194'
p2596
ag3
ag3
ag3
aa(lp2597
S'5195'
p2598
aS'cbeef6f7-6033-4798-8025-e2394dfd64e7'
p2599
aS'4751fb27-1b39-c80e-fd19-501a09700c20'
p2600
aS'1f8c173f-5fd6-4cf3-a273-9a6350a7e016'
p2601
aa(lp2602
S'5206'
p2603
ag3
ag3
ag3
aa(lp2604
S'5221'
p2605
ag3
ag3
ag3
aa(lp2606
S'5269'
p2607
ag3
ag3
ag3
aa(lp2608
S'5270'
p2609
aS'53a57877-1f78-4ed1-b6b2-4b1259d2fabb'
p2610
aS'f1932976-e9ac-aeef-b3d7-15ddad188b2d'
p2611
aS'1f8c173f-5fd6-4cf3-a273-9a6350a7e016'
p2612
aa(lp2613
S'5271'
p2614
ag3
ag3
ag3
aa(lp2615
S'5279'
p2616
ag3
ag3
ag3
aa(lp2617
S'5280'
p2618
aS'1f06537b-19a9-42a9-ba19-51c1f965d8d7'
p2619
aS'dffee95c-f516-69a9-f092-077c599150b2'
p2620
aS'1f8c173f-5fd6-4cf3-a273-9a6350a7e016'
p2621
aa(lp2622
S'5281'
p2623
ag3
ag3
ag3
aa(lp2624
S'5282'
p2625
ag3
ag3
ag3
aa(lp2626
S'5288'
p2627
ag3
ag3
ag3
aa(lp2628
S'5291'
p2629
ag3
ag3
ag3
aa(lp2630
S'5292'
p2631
ag3
ag3
ag3
aa(lp2632
S'5293'
p2633
aS'd9d6fc7e-eab0-466b-a86a-51670e86b9e0'
p2634
aS'cfb35718-8480-64cf-aa40-e48965c84437'
p2635
aS'1f8c173f-5fd6-4cf3-a273-9a6350a7e016'
p2636
aa(lp2637
S'5294'
p2638
aS'fbc6f0d0-048a-4b1d-b577-77e9c36afc3f'
p2639
aS'19ffa597-e999-3d29-a997-a16f0631752a'
p2640
aS'1f8c173f-5fd6-4cf3-a273-9a6350a7e016'
p2641
aa(lp2642
S'5295'
p2643
aS'0544efd3-2e1b-4903-8c88-031cd04d4012'
p2644
aS'4a19fb48-ba57-3a33-f804-cbb0c856dd5c'
p2645
aS'1f8c173f-5fd6-4cf3-a273-9a6350a7e016'
p2646
aa(lp2647
S'5297'
p2648
ag3
ag3
ag3
aa(lp2649
S'5314'
p2650
aS'ed978238-dddc-486e-b510-cb48cbbe1d43'
p2651
aS'adb29aa9-021d-158e-b872-b21af3e08c2b'
p2652
aS'1f8c173f-5fd6-4cf3-a273-9a6350a7e016'
p2653
aa(lp2654
S'5319'
p2655
aS'ed978238-dddc-486e-b510-cb48cbbe1d43'
p2656
aS'adb29aa9-021d-158e-b872-b21af3e08c2b'
p2657
aS'1f8c173f-5fd6-4cf3-a273-9a6350a7e016'
p2658
aa(lp2659
S'5321'
p2660
aS'7eb8588d-f781-447f-966f-fed23002ad44'
p2661
aS'8f6d505d-61f2-2921-01af-737eb0eda0b6'
p2662
aS'1f8c173f-5fd6-4cf3-a273-9a6350a7e016'
p2663
aa(lp2664
S'5345'
p2665
aS'fc8136c0-b543-4b04-9a63-4aa890183a48'
p2666
aS'65364903-db53-ce3a-b182-62a7caa1e3af'
p2667
aS'1f8c173f-5fd6-4cf3-a273-9a6350a7e016'
p2668
aa(lp2669
S'5352'
p2670
aS'854bcdda-2dd3-4372-82e4-32d1b2d49056'
p2671
aS'e4a0ebcb-673a-7bcd-5150-9fa608f44623'
p2672
aS'1f8c173f-5fd6-4cf3-a273-9a6350a7e016'
p2673
aa(lp2674
S'5356'
p2675
aS'c7a02e4e-0cfa-48c6-9596-e0cee2ab5e67'
p2676
aS'47c48c69-db21-e337-b86c-3b0dc348ff5d'
p2677
aS'1f8c173f-5fd6-4cf3-a273-9a6350a7e016'
p2678
aa(lp2679
S'5360'
p2680
ag3
ag3
ag3
aa(lp2681
S'5371'
p2682
aS'95fa6b96-33bc-4e95-b387-9391f117bc07'
p2683
aS'93fb132a-aee0-e581-8425-150fac7a4917'
p2684
aS'1f8c173f-5fd6-4cf3-a273-9a6350a7e016'
p2685
aa(lp2686
S'5380'
p2687
aS'd2e9f398-001b-4d10-a0a1-6e045f5142fa'
p2688
aS'63c5765d-8401-17fc-920c-65b107959511'
p2689
aS'1f8c173f-5fd6-4cf3-a273-9a6350a7e016'
p2690
aa(lp2691
S'5382'
p2692
ag3
ag3
ag3
aa(lp2693
S'5385'
p2694
ag3
ag3
ag3
aa(lp2695
S'5387'
p2696
aS'ee75b60d-131c-4d97-bb89-3b30c5861e79'
p2697
aS'5cc81592-9cd3-5d79-4f7c-3fd179fbcb88'
p2698
aS'1f8c173f-5fd6-4cf3-a273-9a6350a7e016'
p2699
aa(lp2700
S'5388'
p2701
aS'd2e9f398-001b-4d10-a0a1-6e045f5142fa'
p2702
aS'63c5765d-8401-17fc-920c-65b107959511'
p2703
aS'1f8c173f-5fd6-4cf3-a273-9a6350a7e016'
p2704
aa(lp2705
S'5390'
p2706
aS'dd5b31d3-959e-432d-a254-bc09c648b2f0'
p2707
aS'440ee66f-19e8-5361-40fd-479df4e028ae'
p2708
aS'1f8c173f-5fd6-4cf3-a273-9a6350a7e016'
p2709
aa(lp2710
S'5391'
p2711
aS'dd5b31d3-959e-432d-a254-bc09c648b2f0'
p2712
aS'440ee66f-19e8-5361-40fd-479df4e028ae'
p2713
aS'1f8c173f-5fd6-4cf3-a273-9a6350a7e016'
p2714
aa(lp2715
S'5411'
p2716
aS'd69198b8-9a3a-4632-b586-f13409656bbb'
p2717
aS'8a12f107-19c1-a820-03a7-ce560355a242'
p2718
aS'1f8c173f-5fd6-4cf3-a273-9a6350a7e016'
p2719
aa(lp2720
S'5422'
p2721
aS'1cad60fd-87bf-400a-a125-bd897e5f243a'
p2722
aS'6af53a0c-cb42-9ed0-95f8-5c4e1097f201'
p2723
aS'1f8c173f-5fd6-4cf3-a273-9a6350a7e016'
p2724
aa(lp2725
S'5423'
p2726
aS'7e53b1d0-4ebd-48ce-93ef-4f898bda815b'
p2727
aS'2bec0178-32ff-5b6b-cba7-ab109c711ad8'
p2728
aS'1f8c173f-5fd6-4cf3-a273-9a6350a7e016'
p2729
aa(lp2730
S'5424'
p2731
aS'7e53b1d0-4ebd-48ce-93ef-4f898bda815b'
p2732
aS'2bec0178-32ff-5b6b-cba7-ab109c711ad8'
p2733
aS'1f8c173f-5fd6-4cf3-a273-9a6350a7e016'
p2734
aa(lp2735
S'5433'
p2736
ag3
aS'9e7ff8f5-45e5-075d-7c93-cc7241070f33'
p2737
aS'1f8c173f-5fd6-4cf3-a273-9a6350a7e016'
p2738
aa(lp2739
S'5434'
p2740
ag3
ag3
ag3
aa(lp2741
S'5436'
p2742
aS'5d6c9349-326e-4309-a892-cc3c9170ba62'
p2743
aS'eb26c2a2-5845-e1ad-a22a-81b7ef1fcce0'
p2744
aS'1f8c173f-5fd6-4cf3-a273-9a6350a7e016'
p2745
aa(lp2746
S'5446'
p2747
aS'b441997d-08d5-4d20-b435-00f7b7fe63d7'
p2748
aS'eeea2d1c-c742-f387-9188-dafba1d06a3f'
p2749
aS'1f8c173f-5fd6-4cf3-a273-9a6350a7e016'
p2750
aa(lp2751
S'5456'
p2752
ag3
aS'e389d147-4679-6daf-9488-a9a7d948fe3b'
p2753
aS'1f8c173f-5fd6-4cf3-a273-9a6350a7e016'
p2754
aa(lp2755
S'5457'
p2756
aS'a371035c-ab8a-4c04-ab67-6e30fcfa5afa'
p2757
aS'a0d6ecb6-d15e-d57d-e6c8-30defda51511'
p2758
aS'1f8c173f-5fd6-4cf3-a273-9a6350a7e016'
p2759
aa(lp2760
S'5461'
p2761
aS'd3326f54-24a1-45e3-ae91-cdbcbb94f1fe'
p2762
aS'1659c171-f3f4-bc32-da1f-50e0a6ebd402'
p2763
aS'1f8c173f-5fd6-4cf3-a273-9a6350a7e016'
p2764
aa(lp2765
S'5468'
p2766
aS'c4d932a6-8af7-46c0-a9b5-4f3da82d452e'
p2767
aS'1f225e3e-98fe-d557-c6fc-d5b45713df58'
p2768
aS'1f8c173f-5fd6-4cf3-a273-9a6350a7e016'
p2769
aa(lp2770
S'5474'
p2771
aS'1ea5e3ac-34ad-4899-90c6-13a8e3ec7792'
p2772
aS'b1ea155d-7782-305f-8a61-6d122a7135e0'
p2773
aS'1f8c173f-5fd6-4cf3-a273-9a6350a7e016'
p2774
aa(lp2775
S'5475'
p2776
aS'1ea5e3ac-34ad-4899-90c6-13a8e3ec7792'
p2777
aS'b1ea155d-7782-305f-8a61-6d122a7135e0'
p2778
aS'1f8c173f-5fd6-4cf3-a273-9a6350a7e016'
p2779
aa(lp2780
S'5510'
p2781
aS'49d4c681-046c-4a2f-ab76-733ece56f940'
p2782
aS'a7621e0c-7158-0e0b-3273-691726e46ecc'
p2783
aS'1f8c173f-5fd6-4cf3-a273-9a6350a7e016'
p2784
aa(lp2785
S'5511'
p2786
aS'3cbb1fce-b191-485e-841e-46e91dc211ad'
p2787
aS'43cda16a-fab9-40ee-0f0d-a0f66d63e867'
p2788
aS'1f8c173f-5fd6-4cf3-a273-9a6350a7e016'
p2789
aa(lp2790
S'5512'
p2791
aS'3cbb1fce-b191-485e-841e-46e91dc211ad'
p2792
aS'43cda16a-fab9-40ee-0f0d-a0f66d63e867'
p2793
aS'1f8c173f-5fd6-4cf3-a273-9a6350a7e016'
p2794
aa(lp2795
S'5518'
p2796
ag3
ag3
ag3
aa(lp2797
S'5519'
p2798
aS'8b89956d-6b4a-4d2e-be1b-e3a69f621d12'
p2799
aS'a04f86ff-2907-ef36-7374-d2bf9112f671'
p2800
aS'1f8c173f-5fd6-4cf3-a273-9a6350a7e016'
p2801
aa(lp2802
S'5520'
p2803
ag3
ag3
ag3
aa(lp2804
S'5522'
p2805
aS'f00a9fb9-2df5-486f-bb0e-a6d5f1f6dbec'
p2806
aS'cded34ec-e4b3-89bd-bac7-791ee312fe86'
p2807
aS'1f8c173f-5fd6-4cf3-a273-9a6350a7e016'
p2808
aa(lp2809
S'5524'
p2810
aS'fd51b34e-deee-40b4-ae13-424d9db2ff3a'
p2811
aS'cb1807e4-ef15-e410-116d-f65cd5902308'
p2812
aS'1f8c173f-5fd6-4cf3-a273-9a6350a7e016'
p2813
aa(lp2814
S'5526'
p2815
aS'64126787-6a94-4e31-8ffd-e25641ba2734'
p2816
aS'd52fe40a-a05b-75f6-1c5b-13de160d668a'
p2817
aS'1f8c173f-5fd6-4cf3-a273-9a6350a7e016'
p2818
aa(lp2819
S'5528'
p2820
aS'896657f3-9c3f-4076-9da4-84fc2d7dbea0'
p2821
aS'258e81d7-465e-05cc-485e-91d3a85db067'
p2822
aS'1f8c173f-5fd6-4cf3-a273-9a6350a7e016'
p2823
aa(lp2824
S'5533'
p2825
aS'7f1687ca-bbde-48ab-85b9-c65ba56f551f'
p2826
aS'2b454bc2-4e94-1873-c193-f975747dc83e'
p2827
aS'1f8c173f-5fd6-4cf3-a273-9a6350a7e016'
p2828
aa(lp2829
S'5538'
p2830
aS'880a2eec-2507-4509-8d78-b7d2b15a843b'
p2831
aS'77d0502c-e5a2-7cab-d3ac-d7df71de0dd4'
p2832
aS'1f8c173f-5fd6-4cf3-a273-9a6350a7e016'
p2833
aa(lp2834
S'5550'
p2835
aS'627e5c37-eaaa-4a95-9364-fb872fc1ecad'
p2836
aS'b0cda114-662a-7280-50f7-b4ae08342413'
p2837
aS'1f8c173f-5fd6-4cf3-a273-9a6350a7e016'
p2838
aa(lp2839
S'5551'
p2840
aS'9c953fb9-509b-47bf-bd26-7f51849492cb'
p2841
aS'ba36f51b-211d-6f29-ba7f-2ccbf877f213'
p2842
aS'1f8c173f-5fd6-4cf3-a273-9a6350a7e016'
p2843
aa(lp2844
S'5554'
p2845
aS'9d64cfca-443e-4b4c-bcdc-e58bdbb9cade'
p2846
aS'd58a7f68-3a1d-6dc4-662c-e5f77bf1e792'
p2847
aS'1f8c173f-5fd6-4cf3-a273-9a6350a7e016'
p2848
aa(lp2849
S'5558'
p2850
ag3
ag3
ag3
aa(lp2851
S'5563'
p2852
aS'0e5f6da7-0e8b-4214-9c3f-db766c272267'
p2853
aS'59e49347-8ad4-8408-f598-85d28dac2709'
p2854
aS'1f8c173f-5fd6-4cf3-a273-9a6350a7e016'
p2855
aa(lp2856
S'5575'
p2857
aS'5f8d9a44-e920-4be5-b69c-d3f7fef68405'
p2858
aS'b50afe8d-1df4-18ac-ef72-63ac289ec108'
p2859
aS'1f8c173f-5fd6-4cf3-a273-9a6350a7e016'
p2860
aa(lp2861
S'5579'
p2862
aS'7e03e487-26cd-4f66-bfd4-70ac23bdacd7'
p2863
aS'd5c16248-481c-8aed-73e2-f6102dee416c'
p2864
aS'1f8c173f-5fd6-4cf3-a273-9a6350a7e016'
p2865
aa(lp2866
S'5583'
p2867
ag3
ag3
ag3
aa(lp2868
S'5585'
p2869
aS'22629e73-d42d-4d08-9fe2-3f518156edde'
p2870
aS'b1bdf80e-3f05-0c27-ee97-8b9a1682d434'
p2871
aS'1f8c173f-5fd6-4cf3-a273-9a6350a7e016'
p2872
aa(lp2873
S'5606'
p2874
aS'c5a522d1-c415-416d-ab74-275893f4bd55'
p2875
aS'5e541cef-833d-3457-b1b7-f1954a5cc803'
p2876
aS'1f8c173f-5fd6-4cf3-a273-9a6350a7e016'
p2877
aa(lp2878
S'5607'
p2879
aS'8a58e2f6-ccc6-4971-8c45-510ee9010a27'
p2880
aS'e2ee5f63-4f9e-bd9d-424e-7cf4a57b55ef'
p2881
aS'1f8c173f-5fd6-4cf3-a273-9a6350a7e016'
p2882
aa(lp2883
S'5608'
p2884
aS'b5b59182-74ea-47ca-aab1-ec9a02c14d92'
p2885
aS'408c9f06-bddf-aa2b-66be-63ecf5c19486'
p2886
aS'1f8c173f-5fd6-4cf3-a273-9a6350a7e016'
p2887
aa(lp2888
S'5618'
p2889
aS'04636e35-4dbe-4f1c-8225-31c4881aefe1'
p2890
aS'93b3e0da-8307-ea47-a4e7-f4a05aea157e'
p2891
aS'1f8c173f-5fd6-4cf3-a273-9a6350a7e016'
p2892
aa(lp2893
S'5619'
p2894
aS'21bdfabb-e6d4-4d0d-88e6-5e8b4ef2872a'
p2895
aS'b3560136-b3e6-ba6f-2c30-88d8da56cae1'
p2896
aS'1f8c173f-5fd6-4cf3-a273-9a6350a7e016'
p2897
aa(lp2898
S'5621'
p2899
aS'ec74cab2-8672-4c03-971f-1259de23a32a'
p2900
aS'0f8a2b12-d326-12e1-c565-d113e024a4b4'
p2901
aS'1f8c173f-5fd6-4cf3-a273-9a6350a7e016'
p2902
aa(lp2903
S'5626'
p2904
ag3
ag3
ag3
aa(lp2905
S'5627'
p2906
aS'b1a70052-b059-4475-a294-5977845de12b'
p2907
aS'a8458e46-f8cf-cd25-a15a-b13a3c370689'
p2908
aS'1f8c173f-5fd6-4cf3-a273-9a6350a7e016'
p2909
aa(lp2910
S'5628'
p2911
aS'b1a70052-b059-4475-a294-5977845de12b'
p2912
aS'a8458e46-f8cf-cd25-a15a-b13a3c370689'
p2913
aS'1f8c173f-5fd6-4cf3-a273-9a6350a7e016'
p2914
aa(lp2915
S'5632'
p2916
aS'ce626897-28ad-4049-be08-91336587753a'
p2917
aS'f6e929ea-cbdb-c3a7-81a9-3d164794be29'
p2918
aS'1f8c173f-5fd6-4cf3-a273-9a6350a7e016'
p2919
aa(lp2920
S'5633'
p2921
aS'8d009c65-2a66-4b7b-8ef4-2a46943eb75b'
p2922
aS'e233e4ee-d59c-fef1-29c2-d0604028d65c'
p2923
aS'1f8c173f-5fd6-4cf3-a273-9a6350a7e016'
p2924
aa(lp2925
S'5642'
p2926
aS'827f8f20-2996-46be-b2fa-e9b4fce91f29'
p2927
aS'1f1ca8d4-9083-a3bc-399c-6e94bb36d71e'
p2928
aS'1f8c173f-5fd6-4cf3-a273-9a6350a7e016'
p2929
aa(lp2930
S'5648'
p2931
ag3
ag3
ag3
aa(lp2932
S'5680'
p2933
ag3
ag3
ag3
aa(lp2934
S'5681'
p2935
aS'fcad8158-dff7-4d37-85ad-060bea0b1261'
p2936
aS'adb839e8-a227-92a9-92c9-972c13d98948'
p2937
aS'1f8c173f-5fd6-4cf3-a273-9a6350a7e016'
p2938
aa(lp2939
S'5727'
p2940
aS'29a4631e-3490-40e4-9306-05c946b9b4eb'
p2941
aS'6ba34556-0cfe-5b4b-a917-7deee6009d09'
p2942
aS'1f8c173f-5fd6-4cf3-a273-9a6350a7e016'
p2943
aa(lp2944
S'5728'
p2945
aS'29a4631e-3490-40e4-9306-05c946b9b4eb'
p2946
aS'6ba34556-0cfe-5b4b-a917-7deee6009d09'
p2947
aS'1f8c173f-5fd6-4cf3-a273-9a6350a7e016'
p2948
aa(lp2949
S'5730'
p2950
aS'e3e36b9a-6ddf-4e39-931c-e592d70bc728'
p2951
aS'2ba02583-2b57-cbd8-340a-6b17f9ca5042'
p2952
aS'1f8c173f-5fd6-4cf3-a273-9a6350a7e016'
p2953
aa(lp2954
S'5738'
p2955
ag3
ag3
ag3
aa(lp2956
S'5744'
p2957
aS'7aeea212-4d5a-41e6-9bfd-0b8815039094'
p2958
aS'e914fc6d-ec98-a926-460d-6ac0f0440819'
p2959
aS'1f8c173f-5fd6-4cf3-a273-9a6350a7e016'
p2960
aa(lp2961
S'5745'
p2962
aS'881bcb32-27bd-47f2-a069-2b63580d8ba8'
p2963
aS'd27b653e-7d81-311b-05b3-29126bb9807b'
p2964
aS'1f8c173f-5fd6-4cf3-a273-9a6350a7e016'
p2965
aa(lp2966
S'5747'
p2967
aS'672b1a93-e2f1-4003-b321-3cb15d8dfb58'
p2968
aS'fa2a4abd-84a3-4104-3576-721397f34304'
p2969
aS'1f8c173f-5fd6-4cf3-a273-9a6350a7e016'
p2970
aa(lp2971
S'5748'
p2972
aS'53a57877-1f78-4ed1-b6b2-4b1259d2fabb'
p2973
aS'9070734f-0ce1-1955-3b21-ded335e5689f'
p2974
aS'1f8c173f-5fd6-4cf3-a273-9a6350a7e016'
p2975
aa(lp2976
S'5750'
p2977
ag3
ag3
ag3
aa(lp2978
S'5754'
p2979
aS'4c130732-d350-460a-9c53-89cf668f3930'
p2980
aS'ac9b106a-bcd8-fdda-28f0-59a38af3e03b'
p2981
aS'1f8c173f-5fd6-4cf3-a273-9a6350a7e016'
p2982
aa(lp2983
S'5758'
p2984
aS'f831cf36-07bd-4683-bf9d-0a3870a33d1b'
p2985
aS'06fb70bc-0e6e-42fb-4537-17fca2b7dd2f'
p2986
aS'1f8c173f-5fd6-4cf3-a273-9a6350a7e016'
p2987
aa(lp2988
S'5759'
p2989
aS'f831cf36-07bd-4683-bf9d-0a3870a33d1b'
p2990
aS'06fb70bc-0e6e-42fb-4537-17fca2b7dd2f'
p2991
aS'1f8c173f-5fd6-4cf3-a273-9a6350a7e016'
p2992
aa(lp2993
S'5760'
p2994
aS'b9a8f926-fe35-4fa4-9ffe-ae86c34377f0'
p2995
aS'aae080a2-42d6-1256-0afa-2ae2bce3414b'
p2996
aS'1f8c173f-5fd6-4cf3-a273-9a6350a7e016'
p2997
aa(lp2998
S'5761'
p2999
aS'f831cf36-07bd-4683-bf9d-0a3870a33d1b'
p3000
aS'06fb70bc-0e6e-42fb-4537-17fca2b7dd2f'
p3001
aS'1f8c173f-5fd6-4cf3-a273-9a6350a7e016'
p3002
aa(lp3003
S'5762'
p3004
ag3
aS'eb9921cd-5c9d-cb52-39eb-8198c0e7ec12'
p3005
aS'1f8c173f-5fd6-4cf3-a273-9a6350a7e016'
p3006
aa(lp3007
S'5763'
p3008
ag3
ag3
ag3
aa(lp3009
S'5764'
p3010
aS'f831cf36-07bd-4683-bf9d-0a3870a33d1b'
p3011
aS'06fb70bc-0e6e-42fb-4537-17fca2b7dd2f'
p3012
aS'1f8c173f-5fd6-4cf3-a273-9a6350a7e016'
p3013
aa(lp3014
S'5765'
p3015
aS'f831cf36-07bd-4683-bf9d-0a3870a33d1b'
p3016
aS'06fb70bc-0e6e-42fb-4537-17fca2b7dd2f'
p3017
aS'1f8c173f-5fd6-4cf3-a273-9a6350a7e016'
p3018
aa(lp3019
S'5766'
p3020
aS'2caa11d8-db3f-4851-bd5a-6db7db905e80'
p3021
aS'e3ec5349-97ae-c368-4108-31e976ba4e8d'
p3022
aS'1f8c173f-5fd6-4cf3-a273-9a6350a7e016'
p3023
aa(lp3024
S'5767'
p3025
aS'edff1626-1b8d-4404-b53e-a18eec6cd448'
p3026
aS'6e78a5a5-ddf2-27f8-d1a0-3c7772177e6a'
p3027
aS'1f8c173f-5fd6-4cf3-a273-9a6350a7e016'
p3028
aa(lp3029
S'5768'
p3030
aS'8b6e71e2-1916-4a43-bac4-cff451b99b1a'
p3031
aS'3d3dbe03-fa25-14f0-ee8d-6b0afe160bbb'
p3032
aS'1f8c173f-5fd6-4cf3-a273-9a6350a7e016'
p3033
aa(lp3034
S'5769'
p3035
aS'113f8ab6-0a81-4c27-bdc9-60ad0145ceda'
p3036
aS'4fae9dd8-6a8a-aba4-e25d-88f79d00b243'
p3037
aS'1f8c173f-5fd6-4cf3-a273-9a6350a7e016'
p3038
aa(lp3039
S'5770'
p3040
aS'03f6d09a-6dd5-4919-ae68-e5f5c306aa46'
p3041
aS'e7201b8f-0167-fd05-a5f9-9535b4d5a0b5'
p3042
aS'1f8c173f-5fd6-4cf3-a273-9a6350a7e016'
p3043
aa(lp3044
S'5772'
p3045
aS'f0da336a-08d9-4d05-a6b7-86a2c533c578'
p3046
aS'efea1c61-bb1f-3fb9-9c6f-bd791edf8459'
p3047
aS'1f8c173f-5fd6-4cf3-a273-9a6350a7e016'
p3048
aa(lp3049
S'5773'
p3050
ag3
ag3
ag3
aa(lp3051
S'5789'
p3052
ag3
ag3
ag3
aa(lp3053
S'5800'
p3054
ag3
ag3
ag3
aa(lp3055
S'5802'
p3056
ag3
ag3
ag3
aa(lp3057
S'5818'
p3058
aS'b22aed48-59e2-4d44-9da3-44ec6ef340b3'
p3059
aS'ff390e6e-5b17-5493-93ad-11aa32080f3f'
p3060
aS'1f8c173f-5fd6-4cf3-a273-9a6350a7e016'
p3061
aa(lp3062
S'5821'
p3063
ag3
ag3
ag3
aa(lp3064
S'5822'
p3065
ag3
ag3
ag3
aa(lp3066
S'5823'
p3067
aS'd9c9145d-6ba2-4843-b6e3-f251564ceae8'
p3068
aS'c10af95b-b167-710b-3309-30a28d4f4f0c'
p3069
aS'1f8c173f-5fd6-4cf3-a273-9a6350a7e016'
p3070
aa(lp3071
S'5893'
p3072
ag3
aS'6d80f4ea-51be-f116-7022-a5f1df1a7f45'
p3073
aS'1f8c173f-5fd6-4cf3-a273-9a6350a7e016'
p3074
aa(lp3075
S'5944'
p3076
aS'102782fc-4912-4721-96cd-ea9cd03f1c54'
p3077
aS'6278e75e-fd19-61c7-e829-10623a55e6ef'
p3078
aS'1f8c173f-5fd6-4cf3-a273-9a6350a7e016'
p3079
aa(lp3080
S'6003'
p3081
aS'3d34a264-6c71-4f93-9012-75727445f54c'
p3082
aS'34041072-b22c-76f9-50bd-43300cf29b84'
p3083
aS'1f8c173f-5fd6-4cf3-a273-9a6350a7e016'
p3084
aa(lp3085
S'6008'
p3086
aS'f692c2d5-d90f-4eda-aa98-d5f8948072d5'
p3087
aS'f755c6a2-ce60-4fef-0f30-e01ce72c14a0'
p3088
aS'1f8c173f-5fd6-4cf3-a273-9a6350a7e016'
p3089
aa(lp3090
S'6014'
p3091
aS'dc4c20a0-c765-409e-81d3-37ead382383c'
p3092
aS'70e6fe2e-88ee-1c4c-525f-68bb2d4aa88f'
p3093
aS'1f8c173f-5fd6-4cf3-a273-9a6350a7e016'
p3094
aa(lp3095
S'6015'
p3096
aS'38f0f924-23f1-4043-b454-e89d7e42c931'
p3097
aS'6dcf4d7d-21b2-859c-cce7-c0919b68e157'
p3098
aS'1f8c173f-5fd6-4cf3-a273-9a6350a7e016'
p3099
aa(lp3100
S'6046'
p3101
aS'48f2d506-4328-4950-805d-13a317eace77'
p3102
aS'9460117b-c876-cfe5-559a-5b07ff24cc7d'
p3103
aS'1f8c173f-5fd6-4cf3-a273-9a6350a7e016'
p3104
aa(lp3105
S'6093'
p3106
aS'211c8c6d-7575-4284-8b31-33fdcae565b6'
p3107
aS'f6bb2a67-db26-df39-51f5-cfb861210670'
p3108
aS'1f8c173f-5fd6-4cf3-a273-9a6350a7e016'
p3109
aa(lp3110
S'6117'
p3111
aS'079b570e-f63d-456e-8c1d-5c12aea27cf0'
p3112
aS'59f53688-1087-d622-fd44-99ae773cfe4d'
p3113
aS'1f8c173f-5fd6-4cf3-a273-9a6350a7e016'
p3114
aa(lp3115
S'6162'
p3116
aS'4c130732-d350-460a-9c53-89cf668f3930'
p3117
aS'28e8cb13-11de-a69c-2010-848c2f82e717'
p3118
aS'1f8c173f-5fd6-4cf3-a273-9a6350a7e016'
p3119
aa(lp3120
S'6248'
p3121
ag3
ag3
ag3
aa(lp3122
S'6253'
p3123
aS'c7a02e4e-0cfa-48c6-9596-e0cee2ab5e67'
p3124
aS'3962ee41-5640-294f-0762-be47bd368a60'
p3125
aS'1f8c173f-5fd6-4cf3-a273-9a6350a7e016'
p3126
aa(lp3127
S'6307'
p3128
aS'7e0d12e5-f906-42ec-960a-752cad69422d'
p3129
aS'8b323d20-60a5-9628-4cec-a18068e4a09e'
p3130
aS'1f8c173f-5fd6-4cf3-a273-9a6350a7e016'
p3131
aa(lp3132
S'6539'
p3133
aS'cfc981bc-7305-401b-808d-d440378f48e4'
p3134
aS'9814216a-aa44-28bd-6591-4f740fdf1f49'
p3135
aS'1f8c173f-5fd6-4cf3-a273-9a6350a7e016'
p3136
aa(lp3137
S'6540'
p3138
aS'e92b55b8-ca09-4096-86ea-908a3334c3a4'
p3139
aS'71a54f57-3a87-a89c-04fb-440eddf2b38a'
p3140
aS'1f8c173f-5fd6-4cf3-a273-9a6350a7e016'
p3141
aa(lp3142
S'6541'
p3143
aS'7abf027e-fd57-4e24-85e9-a286b729996d'
p3144
aS'08fcbff6-20f7-e198-19f0-22b269a4a7d6'
p3145
aS'1f8c173f-5fd6-4cf3-a273-9a6350a7e016'
p3146
aa(lp3147
S'6580'
p3148
aS'ccfd6ae3-50b6-4406-b6bb-9420eab4a779'
p3149
aS'4b2d1dd9-8159-63e8-16fa-74266ad4861e'
p3150
aS'1f8c173f-5fd6-4cf3-a273-9a6350a7e016'
p3151
aa(lp3152
S'6607'
p3153
ag3
aS'43793912-ae72-ccf3-2212-8cff57cfc370'
p3154
aS'1f8c173f-5fd6-4cf3-a273-9a6350a7e016'
p3155
aa(lp3156
S'6710'
p3157
aS'e7bd2028-6097-4834-a1ff-73c1302c53f0'
p3158
aS'fe055c37-f14b-f389-f30d-dd9c0d6fa0f1'
p3159
aS'1f8c173f-5fd6-4cf3-a273-9a6350a7e016'
p3160
aa(lp3161
S'6982'
p3162
aS'2dc41b33-85c1-48a8-acc3-095aacc9fa85'
p3163
aS'b24c3637-9123-55f0-914f-39e19f41024f'
p3164
aS'1f8c173f-5fd6-4cf3-a273-9a6350a7e016'
p3165
aa(lp3166
S'6998'
p3167
aS'ced5fd13-a8bb-4439-a925-228da0c3d3c1'
p3168
aS'9466cc3f-898d-2e0c-f084-001de39276f2'
p3169
aS'1f8c173f-5fd6-4cf3-a273-9a6350a7e016'
p3170
aa(lp3171
S'7021'
p3172
aS'e5d37c76-82d3-475e-8424-862235f210ac'
p3173
aS'd40ea958-beb7-12f4-da19-7e889482fcb8'
p3174
aS'7c7a26b7-7cb3-4448-a3d6-ac44f6207a50'
p3175
aa(lp3176
S'7095'
p3177
aS'e7fb3a5d-8677-4891-a814-8e87c56965a8'
p3178
aS'c21692cc-ba0f-9f2d-6169-d07ae802bb59'
p3179
aS'1f8c173f-5fd6-4cf3-a273-9a6350a7e016'
p3180
aa(lp3181
S'7153'
p3182
aS'7a18faf3-4824-45c1-aabd-57ff0af14508'
p3183
aS'cfb12ef8-2d45-7aef-3f1e-f3924f76f1a8'
p3184
aS'1f8c173f-5fd6-4cf3-a273-9a6350a7e016'
p3185
aa(lp3186
S'7223'
p3187
aS'b5c7ebcc-edfa-4ed5-a393-40a8518d2161'
p3188
aS'c2ec3a6e-acac-4667-3459-50fa566b7dd4'
p3189
aS'1f8c173f-5fd6-4cf3-a273-9a6350a7e016'
p3190
aa(lp3191
S'7255'
p3192
ag3
ag3
ag3
aa(lp3193
S'7257'
p3194
ag3
ag3
ag3
aa(lp3195
S'7298'
p3196
aS'aaa5cb72-510b-4694-abd1-5eeeb3918ed7'
p3197
aS'8d23a0aa-d557-cb50-dc28-3f18dd09dc48'
p3198
aS'1f8c173f-5fd6-4cf3-a273-9a6350a7e016'
p3199
aa(lp3200
S'7340'
p3201
aS'14e82135-cf10-44de-9920-e3b01eb199c3'
p3202
aS'f7af59b6-b75e-4829-1041-635eaab94dee'
p3203
aS'1f8c173f-5fd6-4cf3-a273-9a6350a7e016'
p3204
aa(lp3205
S'7381'
p3206
aS'0359aa0d-da0f-4544-9f45-f03c0e91d366'
p3207
ag3
aS'1f8c173f-5fd6-4cf3-a273-9a6350a7e016'
p3208
aa(lp3209
S'7396'
p3210
ag3
aS'1f3b0109-8e4f-cefc-f5a2-543453e4d804'
p3211
aS'1f8c173f-5fd6-4cf3-a273-9a6350a7e016'
p3212
aa(lp3213
S'7414'
p3214
ag3
aS'1c58a066-39d3-c206-1514-52a7e263b93a'
p3215
aS'1f8c173f-5fd6-4cf3-a273-9a6350a7e016'
p3216
aa(lp3217
S'7415'
p3218
ag3
aS'1c58a066-39d3-c206-1514-52a7e263b93a'
p3219
aS'1f8c173f-5fd6-4cf3-a273-9a6350a7e016'
p3220
aa(lp3221
S'7420'
p3222
ag3
aS'80ca6c71-f881-d134-caed-9c3b2a6fd942'
p3223
aS'1f8c173f-5fd6-4cf3-a273-9a6350a7e016'
p3224
aa(lp3225
S'7421'
p3226
ag3
aS'80ca6c71-f881-d134-caed-9c3b2a6fd942'
p3227
aS'1f8c173f-5fd6-4cf3-a273-9a6350a7e016'
p3228
aa(lp3229
S'7422'
p3230
ag3
aS'80ca6c71-f881-d134-caed-9c3b2a6fd942'
p3231
aS'1f8c173f-5fd6-4cf3-a273-9a6350a7e016'
p3232
aa(lp3233
S'7423'
p3234
ag3
aS'80ca6c71-f881-d134-caed-9c3b2a6fd942'
p3235
aS'1f8c173f-5fd6-4cf3-a273-9a6350a7e016'
p3236
aa(lp3237
S'7424'
p3238
ag3
aS'80ca6c71-f881-d134-caed-9c3b2a6fd942'
p3239
aS'1f8c173f-5fd6-4cf3-a273-9a6350a7e016'
p3240
aa(lp3241
S'7425'
p3242
ag3
aS'80ca6c71-f881-d134-caed-9c3b2a6fd942'
p3243
aS'1f8c173f-5fd6-4cf3-a273-9a6350a7e016'
p3244
aa(lp3245
S'7426'
p3246
ag3
aS'80ca6c71-f881-d134-caed-9c3b2a6fd942'
p3247
aS'1f8c173f-5fd6-4cf3-a273-9a6350a7e016'
p3248
aa(lp3249
S'7427'
p3250
ag3
aS'80ca6c71-f881-d134-caed-9c3b2a6fd942'
p3251
aS'1f8c173f-5fd6-4cf3-a273-9a6350a7e016'
p3252
aa(lp3253
S'7428'
p3254
ag3
aS'80ca6c71-f881-d134-caed-9c3b2a6fd942'
p3255
aS'1f8c173f-5fd6-4cf3-a273-9a6350a7e016'
p3256
aa(lp3257
S'7429'
p3258
ag3
aS'80ca6c71-f881-d134-caed-9c3b2a6fd942'
p3259
aS'1f8c173f-5fd6-4cf3-a273-9a6350a7e016'
p3260
aa(lp3261
S'7430'
p3262
ag3
aS'80ca6c71-f881-d134-caed-9c3b2a6fd942'
p3263
aS'1f8c173f-5fd6-4cf3-a273-9a6350a7e016'
p3264
aa(lp3265
S'7431'
p3266
ag3
aS'80ca6c71-f881-d134-caed-9c3b2a6fd942'
p3267
aS'1f8c173f-5fd6-4cf3-a273-9a6350a7e016'
p3268
aa(lp3269
S'7432'
p3270
ag3
aS'80ca6c71-f881-d134-caed-9c3b2a6fd942'
p3271
aS'1f8c173f-5fd6-4cf3-a273-9a6350a7e016'
p3272
aa(lp3273
S'7434'
p3274
ag3
aS'80ca6c71-f881-d134-caed-9c3b2a6fd942'
p3275
aS'1f8c173f-5fd6-4cf3-a273-9a6350a7e016'
p3276
aa(lp3277
S'7437'
p3278
ag3
aS'80ca6c71-f881-d134-caed-9c3b2a6fd942'
p3279
aS'1f8c173f-5fd6-4cf3-a273-9a6350a7e016'
p3280
aa(lp3281
S'7439'
p3282
ag3
aS'80ca6c71-f881-d134-caed-9c3b2a6fd942'
p3283
aS'1f8c173f-5fd6-4cf3-a273-9a6350a7e016'
p3284
aa(lp3285
S'7440'
p3286
ag3
aS'80ca6c71-f881-d134-caed-9c3b2a6fd942'
p3287
aS'1f8c173f-5fd6-4cf3-a273-9a6350a7e016'
p3288
aa(lp3289
S'7484'
p3290
ag3
aS'80ca6c71-f881-d134-caed-9c3b2a6fd942'
p3291
aS'1f8c173f-5fd6-4cf3-a273-9a6350a7e016'
p3292
aa(lp3293
S'7515'
p3294
aS'f983ca20-cbf6-46d9-baba-ffb11c393533'
p3295
aS'561a4c79-c042-ed95-c265-9ec10b1ebacf'
p3296
aS'1f8c173f-5fd6-4cf3-a273-9a6350a7e016'
p3297
aa(lp3298
S'7548'
p3299
ag3
aS'80ca6c71-f881-d134-caed-9c3b2a6fd942'
p3300
aS'1f8c173f-5fd6-4cf3-a273-9a6350a7e016'
p3301
aa(lp3302
S'7683'
p3303
ag3
aS'59d8873b-4541-bf45-e814-7401541d17e5'
p3304
aS'1f8c173f-5fd6-4cf3-a273-9a6350a7e016'
p3305
aa(lp3306
S'7730'
p3307
ag3
aS'fcd66ec3-ac9b-3a0e-111c-e53ccf42a361'
p3308
aS'1f8c173f-5fd6-4cf3-a273-9a6350a7e016'
p3309
aa(lp3310
S'7736'
p3311
ag3
aS'c59cd69a-3613-5d6f-db72-fa8fbd269032'
p3312
aS'1f8c173f-5fd6-4cf3-a273-9a6350a7e016'
p3313
aa(lp3314
S'7766'
p3315
aS'03c2abea-0311-43d0-a95c-b2f49c8fb6c7'
p3316
ag3
aS'1f8c173f-5fd6-4cf3-a273-9a6350a7e016'
p3317
aa(lp3318
S'7834'
p3319
aS'5f3d2c15-787f-4239-a2ab-e0021f2064a6'
p3320
ag3
aS'1f8c173f-5fd6-4cf3-a273-9a6350a7e016'
p3321
aa(lp3322
S'7999'
p3323
aS'e8a41fee-efd0-4ffc-9d89-8e31b065e99d'
p3324
aS'94eaa1e2-3140-ae68-459a-d072dac4e442'
p3325
aS'1f8c173f-5fd6-4cf3-a273-9a6350a7e016'
p3326
aa(lp3327
S'8072'
p3328
aS'6486e495-7a23-41d8-8295-cf55ab0b7ab0'
p3329
aS'a5bfe145-c8ac-ad3d-17b5-f3d2586e3187'
p3330
aS'1f8c173f-5fd6-4cf3-a273-9a6350a7e016'
p3331
aa(lp3332
S'8443'
p3333
aS'78476898-9489-4d5a-baa0-3b4c2d6fc443'
p3334
aS'efa1185c-44e9-614f-8046-339a12861612'
p3335
aS'1f8c173f-5fd6-4cf3-a273-9a6350a7e016'
p3336
aa(lp3337
S'8472'
p3338
aS'e33d11e0-9db8-44e9-b6db-267b1446fad8'
p3339
aS'321ea9e0-e828-5ad6-3710-0d2cb246eb6f'
p3340
aS'1f8c173f-5fd6-4cf3-a273-9a6350a7e016'
p3341
aa(lp3342
S'8517'
p3343
aS'e33d11e0-9db8-44e9-b6db-267b1446fad8'
p3344
aS'321ea9e0-e828-5ad6-3710-0d2cb246eb6f'
p3345
aS'1f8c173f-5fd6-4cf3-a273-9a6350a7e016'
p3346
aa(lp3347
S'8523'
p3348
aS'ccb41293-fa6e-453f-bb95-e16c70c04896'
p3349
aS'8f81c94b-10b6-ac33-5a58-ef3b8229f9c4'
p3350
aS'1f8c173f-5fd6-4cf3-a273-9a6350a7e016'
p3351
aa(lp3352
S'8627'
p3353
aS'75c5fde3-3f14-4a48-9292-597ee2a60c6e'
p3354
aS'53b35679-e2ce-34a2-b38d-c3f4993c8265'
p3355
aS'1f8c173f-5fd6-4cf3-a273-9a6350a7e016'
p3356
aa(lp3357
S'8719'
p3358
ag3
aS'ab5a1ac6-bbdf-8d91-0a73-4907e9c44a95'
p3359
aS'1f8c173f-5fd6-4cf3-a273-9a6350a7e016'
p3360
aa(lp3361
S'8720'
p3362
ag3
aS'ab5a1ac6-bbdf-8d91-0a73-4907e9c44a95'
p3363
aS'1f8c173f-5fd6-4cf3-a273-9a6350a7e016'
p3364
aa(lp3365
S'8721'
p3366
ag3
aS'ab5a1ac6-bbdf-8d91-0a73-4907e9c44a95'
p3367
aS'1f8c173f-5fd6-4cf3-a273-9a6350a7e016'
p3368
aa(lp3369
S'8723'
p3370
aS'63b984b6-12ef-4488-a844-1552caf31cc5'
p3371
aS'a4e82a3e-9074-9768-eb24-072c35b199a5'
p3372
aS'1f8c173f-5fd6-4cf3-a273-9a6350a7e016'
p3373
aa(lp3374
S'8745'
p3375
aS'ec74cab2-8672-4c03-971f-1259de23a32a'
p3376
ag3
aS'1f8c173f-5fd6-4cf3-a273-9a6350a7e016'
p3377
aa(lp3378
S'8815'
p3379
aS'7aeea212-4d5a-41e6-9bfd-0b8815039094'
p3380
aS'065aed24-541e-fdf3-f589-ca702b657d5b'
p3381
aS'1f8c173f-5fd6-4cf3-a273-9a6350a7e016'
p3382
aa(lp3383
S'8816'
p3384
aS'921b40df-cfde-4b4c-be9a-6f25e5b5beb7'
p3385
aS'08d2b637-5166-08c9-d0a1-f675c0c12cde'
p3386
aS'1f8c173f-5fd6-4cf3-a273-9a6350a7e016'
p3387
aa(lp3388
S'8914'
p3389
aS'345f4bec-2660-4bd3-8dfb-9ad7cc6403ed'
p3390
aS'05777d32-7c97-508e-3086-7467c99ed377'
p3391
aS'1f8c173f-5fd6-4cf3-a273-9a6350a7e016'
p3392
aa(lp3393
S'8916'
p3394
aS'c4d932a6-8af7-46c0-a9b5-4f3da82d452e'
p3395
aS'ae55cec8-b25f-0d9c-b99b-58409af36f73'
p3396
aS'1f8c173f-5fd6-4cf3-a273-9a6350a7e016'
p3397
aa(lp3398
S'8922'
p3399
aS'c4d932a6-8af7-46c0-a9b5-4f3da82d452e'
p3400
aS'ae55cec8-b25f-0d9c-b99b-58409af36f73'
p3401
aS'1f8c173f-5fd6-4cf3-a273-9a6350a7e016'
p3402
aa(lp3403
S'8923'
p3404
aS'c4d932a6-8af7-46c0-a9b5-4f3da82d452e'
p3405
aS'ae55cec8-b25f-0d9c-b99b-58409af36f73'
p3406
aS'1f8c173f-5fd6-4cf3-a273-9a6350a7e016'
p3407
aa(lp3408
S'9024'
p3409
ag3
aS'8dffd32f-b11d-4145-6475-5587c70429ec'
p3410
aS'1f8c173f-5fd6-4cf3-a273-9a6350a7e016'
p3411
aa(lp3412
S'9029'
p3413
aS'e0cc2cd5-5593-46c3-802f-422093290a69'
p3414
ag3
aS'1f8c173f-5fd6-4cf3-a273-9a6350a7e016'
p3415
aa(lp3416
S'9099'
p3417
aS'f5bc1264-bd41-46ef-8125-a14dc3212726'
p3418
aS'004dbd56-2985-0ee8-2182-23d0f1f0e554'
p3419
aS'1f8c173f-5fd6-4cf3-a273-9a6350a7e016'
p3420
aa(lp3421
S'9106'
p3422
aS'44371afb-1d7f-4a0d-b141-df12eac91619'
p3423
aS'2bec0ad9-9bc8-6b26-aa76-86d79e572dbf'
p3424
aS'1f8c173f-5fd6-4cf3-a273-9a6350a7e016'
p3425
aa(lp3426
S'9107'
p3427
aS'44371afb-1d7f-4a0d-b141-df12eac91619'
p3428
aS'2bec0ad9-9bc8-6b26-aa76-86d79e572dbf'
p3429
aS'1f8c173f-5fd6-4cf3-a273-9a6350a7e016'
p3430
aa(lp3431
S'9108'
p3432
aS'44371afb-1d7f-4a0d-b141-df12eac91619'
p3433
aS'2bec0ad9-9bc8-6b26-aa76-86d79e572dbf'
p3434
aS'1f8c173f-5fd6-4cf3-a273-9a6350a7e016'
p3435
aa(lp3436
S'9118'
p3437
aS'226a2959-3f19-4791-9ecf-04bef9fc514e'
p3438
ag3
aS'1f8c173f-5fd6-4cf3-a273-9a6350a7e016'
p3439
aa(lp3440
S'9157'
p3441
aS'c38bd747-4c83-412f-ad58-efafb749dac0'
p3442
aS'8c832985-900d-d385-5eb9-2268b470c27f'
p3443
aS'1f8c173f-5fd6-4cf3-a273-9a6350a7e016'
p3444
aa(lp3445
S'9158'
p3446
aS'53a57877-1f78-4ed1-b6b2-4b1259d2fabb'
p3447
ag3
aS'1f8c173f-5fd6-4cf3-a273-9a6350a7e016'
p3448
aa(lp3449
S'9170'
p3450
aS'1ea5e3ac-34ad-4899-90c6-13a8e3ec7792'
p3451
aS'90d1780e-6f6f-6840-011c-6f4bd663dd62'
p3452
aS'1f8c173f-5fd6-4cf3-a273-9a6350a7e016'
p3453
aa(lp3454
S'9171'
p3455
aS'1ea5e3ac-34ad-4899-90c6-13a8e3ec7792'
p3456
aS'90d1780e-6f6f-6840-011c-6f4bd663dd62'
p3457
aS'1f8c173f-5fd6-4cf3-a273-9a6350a7e016'
p3458
aa(lp3459
S'9172'
p3460
aS'1ea5e3ac-34ad-4899-90c6-13a8e3ec7792'
p3461
aS'90d1780e-6f6f-6840-011c-6f4bd663dd62'
p3462
aS'1f8c173f-5fd6-4cf3-a273-9a6350a7e016'
p3463
aa(lp3464
S'9198'
p3465
aS'fc8136c0-b543-4b04-9a63-4aa890183a48'
p3466
aS'9d3f8f98-adaf-9548-a9f6-500186c4dee5'
p3467
aS'1f8c173f-5fd6-4cf3-a273-9a6350a7e016'
p3468
aa(lp3469
g3409
aS'Nothing'
p3470
aS'8dffd32f-b11d-4145-6475-5587c70429ec'
p3471
aS'1f8c173f-5fd6-4cf3-a273-9a6350a7e016'
p3472
aa(lp3473
g3413
aS'e0cc2cd5-5593-46c3-802f-422093290a69'
p3474
ag3470
aS'1f8c173f-5fd6-4cf3-a273-9a6350a7e016'
p3475
aa(lp3476
g3417
aS'f5bc1264-bd41-46ef-8125-a14dc3212726'
p3477
aS'004dbd56-2985-0ee8-2182-23d0f1f0e554'
p3478
aS'1f8c173f-5fd6-4cf3-a273-9a6350a7e016'
p3479
aa(lp3480
g3422
aS'44371afb-1d7f-4a0d-b141-df12eac91619'
p3481
aS'2bec0ad9-9bc8-6b26-aa76-86d79e572dbf'
p3482
aS'1f8c173f-5fd6-4cf3-a273-9a6350a7e016'
p3483
aa(lp3484
g3427
aS'44371afb-1d7f-4a0d-b141-df12eac91619'
p3485
aS'2bec0ad9-9bc8-6b26-aa76-86d79e572dbf'
p3486
aS'1f8c173f-5fd6-4cf3-a273-9a6350a7e016'
p3487
aa(lp3488
g3432
aS'44371afb-1d7f-4a0d-b141-df12eac91619'
p3489
aS'2bec0ad9-9bc8-6b26-aa76-86d79e572dbf'
p3490
aS'1f8c173f-5fd6-4cf3-a273-9a6350a7e016'
p3491
aa(lp3492
g3437
aS'226a2959-3f19-4791-9ecf-04bef9fc514e'
p3493
ag3470
aS'1f8c173f-5fd6-4cf3-a273-9a6350a7e016'
p3494
aa(lp3495
g3441
aS'c38bd747-4c83-412f-ad58-efafb749dac0'
p3496
aS'8c832985-900d-d385-5eb9-2268b470c27f'
p3497
aS'1f8c173f-5fd6-4cf3-a273-9a6350a7e016'
p3498
aa(lp3499
g3446
aS'53a57877-1f78-4ed1-b6b2-4b1259d2fabb'
p3500
ag3470
aS'1f8c173f-5fd6-4cf3-a273-9a6350a7e016'
p3501
aa(lp3502
g3450
aS'1ea5e3ac-34ad-4899-90c6-13a8e3ec7792'
p3503
aS'90d1780e-6f6f-6840-011c-6f4bd663dd62'
p3504
aS'1f8c173f-5fd6-4cf3-a273-9a6350a7e016'
p3505
aa(lp3506
g3455
aS'1ea5e3ac-34ad-4899-90c6-13a8e3ec7792'
p3507
aS'90d1780e-6f6f-6840-011c-6f4bd663dd62'
p3508
aS'1f8c173f-5fd6-4cf3-a273-9a6350a7e016'
p3509
aa(lp3510
g3460
aS'1ea5e3ac-34ad-4899-90c6-13a8e3ec7792'
p3511
aS'90d1780e-6f6f-6840-011c-6f4bd663dd62'
p3512
aS'1f8c173f-5fd6-4cf3-a273-9a6350a7e016'
p3513
aa(lp3514
g3465
aS'fc8136c0-b543-4b04-9a63-4aa890183a48'
p3515
aS'9d3f8f98-adaf-9548-a9f6-500186c4dee5'
p3516
aS'1f8c173f-5fd6-4cf3-a273-9a6350a7e016'
p3517
aa.